ARM GAS  C:\Users\sangt\AppData\Local\Temp\ccci1Ijc.s 			page 1


   1              		.cpu cortex-m4
   2              		.arch armv7e-m
   3              		.fpu fpv4-sp-d16
   4              		.eabi_attribute 27, 1
   5              		.eabi_attribute 28, 1
   6              		.eabi_attribute 20, 1
   7              		.eabi_attribute 21, 1
   8              		.eabi_attribute 23, 3
   9              		.eabi_attribute 24, 1
  10              		.eabi_attribute 25, 1
  11              		.eabi_attribute 26, 1
  12              		.eabi_attribute 30, 1
  13              		.eabi_attribute 34, 1
  14              		.eabi_attribute 18, 4
  15              		.file	"main.c"
  16              		.text
  17              	.Ltext0:
  18              		.cfi_sections	.debug_frame
  19              		.section	.text.MX_GPIO_Init,"ax",%progbits
  20              		.align	1
  21              		.syntax unified
  22              		.thumb
  23              		.thumb_func
  25              	MX_GPIO_Init:
  26              	.LFB250:
  27              		.file 1 "Core/Src/main.c"
   1:Core/Src/main.c **** /* USER CODE BEGIN Header */
   2:Core/Src/main.c **** /**
   3:Core/Src/main.c ****   ******************************************************************************
   4:Core/Src/main.c ****   * @file           : main.c
   5:Core/Src/main.c ****   * @brief          : Main program body
   6:Core/Src/main.c ****   ******************************************************************************
   7:Core/Src/main.c ****   * @attention
   8:Core/Src/main.c ****   *
   9:Core/Src/main.c ****   * <h2><center>&copy; Copyright (c) 2022 STMicroelectronics.
  10:Core/Src/main.c ****   * All rights reserved.</center></h2>
  11:Core/Src/main.c ****   *
  12:Core/Src/main.c ****   * This software component is licensed by ST under BSD 3-Clause license,
  13:Core/Src/main.c ****   * the "License"; You may not use this file except in compliance with the
  14:Core/Src/main.c ****   * License. You may obtain a copy of the License at:
  15:Core/Src/main.c ****   *                        opensource.org/licenses/BSD-3-Clause
  16:Core/Src/main.c ****   *
  17:Core/Src/main.c ****   ******************************************************************************
  18:Core/Src/main.c ****   */
  19:Core/Src/main.c **** /* USER CODE END Header */
  20:Core/Src/main.c **** /* Includes ------------------------------------------------------------------*/
  21:Core/Src/main.c **** #include "main.h"
  22:Core/Src/main.c **** 
  23:Core/Src/main.c **** /* Private includes ----------------------------------------------------------*/
  24:Core/Src/main.c **** /* USER CODE BEGIN Includes */
  25:Core/Src/main.c **** 
  26:Core/Src/main.c **** //FreeRTOS
  27:Core/Src/main.c **** #include "FreeRTOS.h"
  28:Core/Src/main.c **** #include "task.h"
  29:Core/Src/main.c **** #include "timers.h"
  30:Core/Src/main.c **** #include "queue.h"
  31:Core/Src/main.c **** #include "semphr.h"
ARM GAS  C:\Users\sangt\AppData\Local\Temp\ccci1Ijc.s 			page 2


  32:Core/Src/main.c **** #include "event_groups.h"
  33:Core/Src/main.c **** 
  34:Core/Src/main.c **** //MEMS
  35:Core/Src/main.c **** #include "sensors.h"
  36:Core/Src/main.c **** /* USER CODE END Includes */
  37:Core/Src/main.c **** 
  38:Core/Src/main.c **** /* Private typedef -----------------------------------------------------------*/
  39:Core/Src/main.c **** /* USER CODE BEGIN PTD */
  40:Core/Src/main.c **** 
  41:Core/Src/main.c **** /* USER CODE END PTD */
  42:Core/Src/main.c **** 
  43:Core/Src/main.c **** /* Private define ------------------------------------------------------------*/
  44:Core/Src/main.c **** /* USER CODE BEGIN PD */
  45:Core/Src/main.c **** /* USER CODE END PD */
  46:Core/Src/main.c **** 
  47:Core/Src/main.c **** /* Private macro -------------------------------------------------------------*/
  48:Core/Src/main.c **** /* USER CODE BEGIN PM */
  49:Core/Src/main.c **** 
  50:Core/Src/main.c **** /* USER CODE END PM */
  51:Core/Src/main.c **** 
  52:Core/Src/main.c **** /* Private variables ---------------------------------------------------------*/
  53:Core/Src/main.c **** ADC_HandleTypeDef hadc1;
  54:Core/Src/main.c **** DMA_HandleTypeDef hdma_adc1;
  55:Core/Src/main.c **** 
  56:Core/Src/main.c **** I2C_HandleTypeDef hi2c1;
  57:Core/Src/main.c **** I2C_HandleTypeDef hi2c2;
  58:Core/Src/main.c **** 
  59:Core/Src/main.c **** TIM_HandleTypeDef htim5;
  60:Core/Src/main.c **** 
  61:Core/Src/main.c **** UART_HandleTypeDef huart5;
  62:Core/Src/main.c **** UART_HandleTypeDef huart1;
  63:Core/Src/main.c **** UART_HandleTypeDef huart3;
  64:Core/Src/main.c **** 
  65:Core/Src/main.c **** /* USER CODE BEGIN PV */
  66:Core/Src/main.c **** uint8_t count = 0;
  67:Core/Src/main.c **** 
  68:Core/Src/main.c **** TaskHandle_t DefaultTask;
  69:Core/Src/main.c **** 
  70:Core/Src/main.c **** sensor_handle_t SensorData;
  71:Core/Src/main.c **** /* USER CODE END PV */
  72:Core/Src/main.c **** 
  73:Core/Src/main.c **** /* Private function prototypes -----------------------------------------------*/
  74:Core/Src/main.c **** void SystemClock_Config(void);
  75:Core/Src/main.c **** static void MX_GPIO_Init(void);
  76:Core/Src/main.c **** static void MX_USART1_UART_Init(void);
  77:Core/Src/main.c **** static void MX_DMA_Init(void);
  78:Core/Src/main.c **** static void MX_ADC1_Init(void);
  79:Core/Src/main.c **** static void MX_I2C1_Init(void);
  80:Core/Src/main.c **** static void MX_I2C2_Init(void);
  81:Core/Src/main.c **** static void MX_TIM5_Init(void);
  82:Core/Src/main.c **** static void MX_UART5_Init(void);
  83:Core/Src/main.c **** static void MX_USART3_UART_Init(void);
  84:Core/Src/main.c **** 
  85:Core/Src/main.c **** /* USER CODE BEGIN PFP */
  86:Core/Src/main.c **** #ifdef __GNUC__
  87:Core/Src/main.c **** /* With GCC, small printf (option LD Linker->Libraries->Small printf
  88:Core/Src/main.c ****  set to 'Yes') calls __io_putchar() */
ARM GAS  C:\Users\sangt\AppData\Local\Temp\ccci1Ijc.s 			page 3


  89:Core/Src/main.c **** #define PUTCHAR_PROTOTYPE int __io_putchar(int ch)
  90:Core/Src/main.c **** #else
  91:Core/Src/main.c **** #define PUTCHAR_PROTOTYPE int fputc(int ch, FILE *f)
  92:Core/Src/main.c **** #endif /* __GNUC__ */
  93:Core/Src/main.c **** 
  94:Core/Src/main.c **** void Default_task (void *pvParameters);
  95:Core/Src/main.c **** 
  96:Core/Src/main.c **** /* USER CODE END PFP */
  97:Core/Src/main.c **** 
  98:Core/Src/main.c **** /* Private user code ---------------------------------------------------------*/
  99:Core/Src/main.c **** /* USER CODE BEGIN 0 */
 100:Core/Src/main.c **** 
 101:Core/Src/main.c **** /* USER CODE END 0 */
 102:Core/Src/main.c **** 
 103:Core/Src/main.c **** /**
 104:Core/Src/main.c ****   * @brief  The application entry point.
 105:Core/Src/main.c ****   * @retval int
 106:Core/Src/main.c ****   */
 107:Core/Src/main.c **** int main(void)
 108:Core/Src/main.c **** {
 109:Core/Src/main.c ****   /* USER CODE BEGIN 1 */
 110:Core/Src/main.c **** 
 111:Core/Src/main.c ****   /* USER CODE END 1 */
 112:Core/Src/main.c **** 
 113:Core/Src/main.c ****   /* MCU Configuration--------------------------------------------------------*/
 114:Core/Src/main.c **** 
 115:Core/Src/main.c ****   /* Reset of all peripherals, Initializes the Flash interface and the Systick. */
 116:Core/Src/main.c ****   HAL_Init();
 117:Core/Src/main.c **** 
 118:Core/Src/main.c ****   /* USER CODE BEGIN Init */
 119:Core/Src/main.c **** 
 120:Core/Src/main.c ****   /* USER CODE END Init */
 121:Core/Src/main.c **** 
 122:Core/Src/main.c ****   /* Configure the system clock */
 123:Core/Src/main.c ****   SystemClock_Config();
 124:Core/Src/main.c **** 
 125:Core/Src/main.c ****   /* USER CODE BEGIN SysInit */
 126:Core/Src/main.c **** 
 127:Core/Src/main.c ****   /* USER CODE END SysInit */
 128:Core/Src/main.c **** 
 129:Core/Src/main.c ****   /* Initialize all configured peripherals */
 130:Core/Src/main.c ****   MX_GPIO_Init();
 131:Core/Src/main.c ****   MX_USART1_UART_Init();
 132:Core/Src/main.c ****   MX_DMA_Init();
 133:Core/Src/main.c ****   MX_ADC1_Init();
 134:Core/Src/main.c ****   MX_I2C1_Init();
 135:Core/Src/main.c ****   MX_I2C2_Init();
 136:Core/Src/main.c ****   MX_TIM5_Init();
 137:Core/Src/main.c ****   MX_UART5_Init();
 138:Core/Src/main.c ****   MX_USART3_UART_Init();
 139:Core/Src/main.c ****   /* USER CODE BEGIN 2 */
 140:Core/Src/main.c ****   xTaskCreate(&Default_task, "Default", 256, NULL, 1, &DefaultTask);
 141:Core/Src/main.c **** 
 142:Core/Src/main.c ****   //Start Scheduler
 143:Core/Src/main.c ****   vTaskStartScheduler();
 144:Core/Src/main.c ****   /* USER CODE END 2 */
 145:Core/Src/main.c **** 
ARM GAS  C:\Users\sangt\AppData\Local\Temp\ccci1Ijc.s 			page 4


 146:Core/Src/main.c ****   /* We should never get here as control is now taken by the scheduler */
 147:Core/Src/main.c ****   /* Infinite loop */
 148:Core/Src/main.c ****   /* USER CODE BEGIN WHILE */
 149:Core/Src/main.c ****   while (1)
 150:Core/Src/main.c ****   {
 151:Core/Src/main.c ****     /* USER CODE END WHILE */
 152:Core/Src/main.c **** 
 153:Core/Src/main.c ****     /* USER CODE BEGIN 3 */
 154:Core/Src/main.c ****   }
 155:Core/Src/main.c ****   /* USER CODE END 3 */
 156:Core/Src/main.c **** }
 157:Core/Src/main.c **** 
 158:Core/Src/main.c **** /**
 159:Core/Src/main.c ****   * @brief System Clock Configuration
 160:Core/Src/main.c ****   * @retval None
 161:Core/Src/main.c ****   */
 162:Core/Src/main.c **** void SystemClock_Config(void)
 163:Core/Src/main.c **** {
 164:Core/Src/main.c ****   RCC_OscInitTypeDef RCC_OscInitStruct = {0};
 165:Core/Src/main.c ****   RCC_ClkInitTypeDef RCC_ClkInitStruct = {0};
 166:Core/Src/main.c **** 
 167:Core/Src/main.c ****   /** Configure the main internal regulator output voltage
 168:Core/Src/main.c ****   */
 169:Core/Src/main.c ****   __HAL_RCC_PWR_CLK_ENABLE();
 170:Core/Src/main.c ****   __HAL_PWR_VOLTAGESCALING_CONFIG(PWR_REGULATOR_VOLTAGE_SCALE1);
 171:Core/Src/main.c ****   /** Initializes the RCC Oscillators according to the specified parameters
 172:Core/Src/main.c ****   * in the RCC_OscInitTypeDef structure.
 173:Core/Src/main.c ****   */
 174:Core/Src/main.c ****   RCC_OscInitStruct.OscillatorType = RCC_OSCILLATORTYPE_HSE;
 175:Core/Src/main.c ****   RCC_OscInitStruct.HSEState = RCC_HSE_ON;
 176:Core/Src/main.c ****   RCC_OscInitStruct.PLL.PLLState = RCC_PLL_ON;
 177:Core/Src/main.c ****   RCC_OscInitStruct.PLL.PLLSource = RCC_PLLSOURCE_HSE;
 178:Core/Src/main.c ****   RCC_OscInitStruct.PLL.PLLM = 4;
 179:Core/Src/main.c ****   RCC_OscInitStruct.PLL.PLLN = 128;
 180:Core/Src/main.c ****   RCC_OscInitStruct.PLL.PLLP = RCC_PLLP_DIV2;
 181:Core/Src/main.c ****   RCC_OscInitStruct.PLL.PLLQ = 4;
 182:Core/Src/main.c ****   if (HAL_RCC_OscConfig(&RCC_OscInitStruct) != HAL_OK)
 183:Core/Src/main.c ****   {
 184:Core/Src/main.c ****     Error_Handler();
 185:Core/Src/main.c ****   }
 186:Core/Src/main.c ****   /** Initializes the CPU, AHB and APB buses clocks
 187:Core/Src/main.c ****   */
 188:Core/Src/main.c ****   RCC_ClkInitStruct.ClockType = RCC_CLOCKTYPE_HCLK|RCC_CLOCKTYPE_SYSCLK
 189:Core/Src/main.c ****                               |RCC_CLOCKTYPE_PCLK1|RCC_CLOCKTYPE_PCLK2;
 190:Core/Src/main.c ****   RCC_ClkInitStruct.SYSCLKSource = RCC_SYSCLKSOURCE_PLLCLK;
 191:Core/Src/main.c ****   RCC_ClkInitStruct.AHBCLKDivider = RCC_SYSCLK_DIV1;
 192:Core/Src/main.c ****   RCC_ClkInitStruct.APB1CLKDivider = RCC_HCLK_DIV4;
 193:Core/Src/main.c ****   RCC_ClkInitStruct.APB2CLKDivider = RCC_HCLK_DIV2;
 194:Core/Src/main.c **** 
 195:Core/Src/main.c ****   if (HAL_RCC_ClockConfig(&RCC_ClkInitStruct, FLASH_LATENCY_4) != HAL_OK)
 196:Core/Src/main.c ****   {
 197:Core/Src/main.c ****     Error_Handler();
 198:Core/Src/main.c ****   }
 199:Core/Src/main.c **** }
 200:Core/Src/main.c **** 
 201:Core/Src/main.c **** /**
 202:Core/Src/main.c ****   * @brief ADC1 Initialization Function
ARM GAS  C:\Users\sangt\AppData\Local\Temp\ccci1Ijc.s 			page 5


 203:Core/Src/main.c ****   * @param None
 204:Core/Src/main.c ****   * @retval None
 205:Core/Src/main.c ****   */
 206:Core/Src/main.c **** static void MX_ADC1_Init(void)
 207:Core/Src/main.c **** {
 208:Core/Src/main.c **** 
 209:Core/Src/main.c ****   /* USER CODE BEGIN ADC1_Init 0 */
 210:Core/Src/main.c **** 
 211:Core/Src/main.c ****   /* USER CODE END ADC1_Init 0 */
 212:Core/Src/main.c **** 
 213:Core/Src/main.c ****   ADC_ChannelConfTypeDef sConfig = {0};
 214:Core/Src/main.c **** 
 215:Core/Src/main.c ****   /* USER CODE BEGIN ADC1_Init 1 */
 216:Core/Src/main.c **** 
 217:Core/Src/main.c ****   /* USER CODE END ADC1_Init 1 */
 218:Core/Src/main.c ****   /** Configure the global features of the ADC (Clock, Resolution, Data Alignment and number of con
 219:Core/Src/main.c ****   */
 220:Core/Src/main.c ****   hadc1.Instance = ADC1;
 221:Core/Src/main.c ****   hadc1.Init.ClockPrescaler = ADC_CLOCK_SYNC_PCLK_DIV2;
 222:Core/Src/main.c ****   hadc1.Init.Resolution = ADC_RESOLUTION_12B;
 223:Core/Src/main.c ****   hadc1.Init.ScanConvMode = DISABLE;
 224:Core/Src/main.c ****   hadc1.Init.ContinuousConvMode = DISABLE;
 225:Core/Src/main.c ****   hadc1.Init.DiscontinuousConvMode = DISABLE;
 226:Core/Src/main.c ****   hadc1.Init.ExternalTrigConvEdge = ADC_EXTERNALTRIGCONVEDGE_NONE;
 227:Core/Src/main.c ****   hadc1.Init.ExternalTrigConv = ADC_SOFTWARE_START;
 228:Core/Src/main.c ****   hadc1.Init.DataAlign = ADC_DATAALIGN_RIGHT;
 229:Core/Src/main.c ****   hadc1.Init.NbrOfConversion = 1;
 230:Core/Src/main.c ****   hadc1.Init.DMAContinuousRequests = DISABLE;
 231:Core/Src/main.c ****   hadc1.Init.EOCSelection = ADC_EOC_SINGLE_CONV;
 232:Core/Src/main.c ****   if (HAL_ADC_Init(&hadc1) != HAL_OK)
 233:Core/Src/main.c ****   {
 234:Core/Src/main.c ****     Error_Handler();
 235:Core/Src/main.c ****   }
 236:Core/Src/main.c ****   /** Configure for the selected ADC regular channel its corresponding rank in the sequencer and it
 237:Core/Src/main.c ****   */
 238:Core/Src/main.c ****   sConfig.Channel = ADC_CHANNEL_6;
 239:Core/Src/main.c ****   sConfig.Rank = 1;
 240:Core/Src/main.c ****   sConfig.SamplingTime = ADC_SAMPLETIME_480CYCLES;
 241:Core/Src/main.c ****   if (HAL_ADC_ConfigChannel(&hadc1, &sConfig) != HAL_OK)
 242:Core/Src/main.c ****   {
 243:Core/Src/main.c ****     Error_Handler();
 244:Core/Src/main.c ****   }
 245:Core/Src/main.c ****   /* USER CODE BEGIN ADC1_Init 2 */
 246:Core/Src/main.c **** 
 247:Core/Src/main.c ****   /* USER CODE END ADC1_Init 2 */
 248:Core/Src/main.c **** 
 249:Core/Src/main.c **** }
 250:Core/Src/main.c **** 
 251:Core/Src/main.c **** /**
 252:Core/Src/main.c ****   * @brief I2C1 Initialization Function
 253:Core/Src/main.c ****   * @param None
 254:Core/Src/main.c ****   * @retval None
 255:Core/Src/main.c ****   */
 256:Core/Src/main.c **** static void MX_I2C1_Init(void)
 257:Core/Src/main.c **** {
 258:Core/Src/main.c **** 
 259:Core/Src/main.c ****   /* USER CODE BEGIN I2C1_Init 0 */
ARM GAS  C:\Users\sangt\AppData\Local\Temp\ccci1Ijc.s 			page 6


 260:Core/Src/main.c **** 
 261:Core/Src/main.c ****   /* USER CODE END I2C1_Init 0 */
 262:Core/Src/main.c **** 
 263:Core/Src/main.c ****   /* USER CODE BEGIN I2C1_Init 1 */
 264:Core/Src/main.c **** 
 265:Core/Src/main.c ****   /* USER CODE END I2C1_Init 1 */
 266:Core/Src/main.c ****   hi2c1.Instance = I2C1;
 267:Core/Src/main.c ****   hi2c1.Init.ClockSpeed = 100000;
 268:Core/Src/main.c ****   hi2c1.Init.DutyCycle = I2C_DUTYCYCLE_2;
 269:Core/Src/main.c ****   hi2c1.Init.OwnAddress1 = 0;
 270:Core/Src/main.c ****   hi2c1.Init.AddressingMode = I2C_ADDRESSINGMODE_7BIT;
 271:Core/Src/main.c ****   hi2c1.Init.DualAddressMode = I2C_DUALADDRESS_DISABLE;
 272:Core/Src/main.c ****   hi2c1.Init.OwnAddress2 = 0;
 273:Core/Src/main.c ****   hi2c1.Init.GeneralCallMode = I2C_GENERALCALL_DISABLE;
 274:Core/Src/main.c ****   hi2c1.Init.NoStretchMode = I2C_NOSTRETCH_DISABLE;
 275:Core/Src/main.c ****   if (HAL_I2C_Init(&hi2c1) != HAL_OK)
 276:Core/Src/main.c ****   {
 277:Core/Src/main.c ****     Error_Handler();
 278:Core/Src/main.c ****   }
 279:Core/Src/main.c ****   /* USER CODE BEGIN I2C1_Init 2 */
 280:Core/Src/main.c **** 
 281:Core/Src/main.c ****   /* USER CODE END I2C1_Init 2 */
 282:Core/Src/main.c **** 
 283:Core/Src/main.c **** }
 284:Core/Src/main.c **** 
 285:Core/Src/main.c **** /**
 286:Core/Src/main.c ****   * @brief I2C2 Initialization Function
 287:Core/Src/main.c ****   * @param None
 288:Core/Src/main.c ****   * @retval None
 289:Core/Src/main.c ****   */
 290:Core/Src/main.c **** static void MX_I2C2_Init(void)
 291:Core/Src/main.c **** {
 292:Core/Src/main.c **** 
 293:Core/Src/main.c ****   /* USER CODE BEGIN I2C2_Init 0 */
 294:Core/Src/main.c **** 
 295:Core/Src/main.c ****   /* USER CODE END I2C2_Init 0 */
 296:Core/Src/main.c **** 
 297:Core/Src/main.c ****   /* USER CODE BEGIN I2C2_Init 1 */
 298:Core/Src/main.c **** 
 299:Core/Src/main.c ****   /* USER CODE END I2C2_Init 1 */
 300:Core/Src/main.c ****   hi2c2.Instance = I2C2;
 301:Core/Src/main.c ****   hi2c2.Init.ClockSpeed = 100000;
 302:Core/Src/main.c ****   hi2c2.Init.DutyCycle = I2C_DUTYCYCLE_2;
 303:Core/Src/main.c ****   hi2c2.Init.OwnAddress1 = 0;
 304:Core/Src/main.c ****   hi2c2.Init.AddressingMode = I2C_ADDRESSINGMODE_7BIT;
 305:Core/Src/main.c ****   hi2c2.Init.DualAddressMode = I2C_DUALADDRESS_DISABLE;
 306:Core/Src/main.c ****   hi2c2.Init.OwnAddress2 = 0;
 307:Core/Src/main.c ****   hi2c2.Init.GeneralCallMode = I2C_GENERALCALL_DISABLE;
 308:Core/Src/main.c ****   hi2c2.Init.NoStretchMode = I2C_NOSTRETCH_DISABLE;
 309:Core/Src/main.c ****   if (HAL_I2C_Init(&hi2c2) != HAL_OK)
 310:Core/Src/main.c ****   {
 311:Core/Src/main.c ****     Error_Handler();
 312:Core/Src/main.c ****   }
 313:Core/Src/main.c ****   /* USER CODE BEGIN I2C2_Init 2 */
 314:Core/Src/main.c **** 
 315:Core/Src/main.c ****   /* USER CODE END I2C2_Init 2 */
 316:Core/Src/main.c **** 
ARM GAS  C:\Users\sangt\AppData\Local\Temp\ccci1Ijc.s 			page 7


 317:Core/Src/main.c **** }
 318:Core/Src/main.c **** 
 319:Core/Src/main.c **** /**
 320:Core/Src/main.c ****   * @brief TIM5 Initialization Function
 321:Core/Src/main.c ****   * @param None
 322:Core/Src/main.c ****   * @retval None
 323:Core/Src/main.c ****   */
 324:Core/Src/main.c **** static void MX_TIM5_Init(void)
 325:Core/Src/main.c **** {
 326:Core/Src/main.c **** 
 327:Core/Src/main.c ****   /* USER CODE BEGIN TIM5_Init 0 */
 328:Core/Src/main.c **** 
 329:Core/Src/main.c ****   /* USER CODE END TIM5_Init 0 */
 330:Core/Src/main.c **** 
 331:Core/Src/main.c ****   TIM_ClockConfigTypeDef sClockSourceConfig = {0};
 332:Core/Src/main.c ****   TIM_MasterConfigTypeDef sMasterConfig = {0};
 333:Core/Src/main.c ****   TIM_OC_InitTypeDef sConfigOC = {0};
 334:Core/Src/main.c **** 
 335:Core/Src/main.c ****   /* USER CODE BEGIN TIM5_Init 1 */
 336:Core/Src/main.c **** 
 337:Core/Src/main.c ****   /* USER CODE END TIM5_Init 1 */
 338:Core/Src/main.c ****   htim5.Instance = TIM5;
 339:Core/Src/main.c ****   htim5.Init.Prescaler = 640;
 340:Core/Src/main.c ****   htim5.Init.CounterMode = TIM_COUNTERMODE_UP;
 341:Core/Src/main.c ****   htim5.Init.Period = 2000;
 342:Core/Src/main.c ****   htim5.Init.ClockDivision = TIM_CLOCKDIVISION_DIV1;
 343:Core/Src/main.c ****   htim5.Init.AutoReloadPreload = TIM_AUTORELOAD_PRELOAD_DISABLE;
 344:Core/Src/main.c ****   if (HAL_TIM_Base_Init(&htim5) != HAL_OK)
 345:Core/Src/main.c ****   {
 346:Core/Src/main.c ****     Error_Handler();
 347:Core/Src/main.c ****   }
 348:Core/Src/main.c ****   sClockSourceConfig.ClockSource = TIM_CLOCKSOURCE_INTERNAL;
 349:Core/Src/main.c ****   if (HAL_TIM_ConfigClockSource(&htim5, &sClockSourceConfig) != HAL_OK)
 350:Core/Src/main.c ****   {
 351:Core/Src/main.c ****     Error_Handler();
 352:Core/Src/main.c ****   }
 353:Core/Src/main.c ****   if (HAL_TIM_PWM_Init(&htim5) != HAL_OK)
 354:Core/Src/main.c ****   {
 355:Core/Src/main.c ****     Error_Handler();
 356:Core/Src/main.c ****   }
 357:Core/Src/main.c ****   sMasterConfig.MasterOutputTrigger = TIM_TRGO_RESET;
 358:Core/Src/main.c ****   sMasterConfig.MasterSlaveMode = TIM_MASTERSLAVEMODE_DISABLE;
 359:Core/Src/main.c ****   if (HAL_TIMEx_MasterConfigSynchronization(&htim5, &sMasterConfig) != HAL_OK)
 360:Core/Src/main.c ****   {
 361:Core/Src/main.c ****     Error_Handler();
 362:Core/Src/main.c ****   }
 363:Core/Src/main.c ****   sConfigOC.OCMode = TIM_OCMODE_PWM1;
 364:Core/Src/main.c ****   sConfigOC.Pulse = 0;
 365:Core/Src/main.c ****   sConfigOC.OCPolarity = TIM_OCPOLARITY_HIGH;
 366:Core/Src/main.c ****   sConfigOC.OCFastMode = TIM_OCFAST_DISABLE;
 367:Core/Src/main.c ****   if (HAL_TIM_PWM_ConfigChannel(&htim5, &sConfigOC, TIM_CHANNEL_1) != HAL_OK)
 368:Core/Src/main.c ****   {
 369:Core/Src/main.c ****     Error_Handler();
 370:Core/Src/main.c ****   }
 371:Core/Src/main.c ****   if (HAL_TIM_PWM_ConfigChannel(&htim5, &sConfigOC, TIM_CHANNEL_2) != HAL_OK)
 372:Core/Src/main.c ****   {
 373:Core/Src/main.c ****     Error_Handler();
ARM GAS  C:\Users\sangt\AppData\Local\Temp\ccci1Ijc.s 			page 8


 374:Core/Src/main.c ****   }
 375:Core/Src/main.c ****   if (HAL_TIM_PWM_ConfigChannel(&htim5, &sConfigOC, TIM_CHANNEL_3) != HAL_OK)
 376:Core/Src/main.c ****   {
 377:Core/Src/main.c ****     Error_Handler();
 378:Core/Src/main.c ****   }
 379:Core/Src/main.c ****   if (HAL_TIM_PWM_ConfigChannel(&htim5, &sConfigOC, TIM_CHANNEL_4) != HAL_OK)
 380:Core/Src/main.c ****   {
 381:Core/Src/main.c ****     Error_Handler();
 382:Core/Src/main.c ****   }
 383:Core/Src/main.c ****   /* USER CODE BEGIN TIM5_Init 2 */
 384:Core/Src/main.c **** 
 385:Core/Src/main.c ****   /* USER CODE END TIM5_Init 2 */
 386:Core/Src/main.c ****   HAL_TIM_MspPostInit(&htim5);
 387:Core/Src/main.c **** 
 388:Core/Src/main.c **** }
 389:Core/Src/main.c **** 
 390:Core/Src/main.c **** /**
 391:Core/Src/main.c ****   * @brief UART5 Initialization Function
 392:Core/Src/main.c ****   * @param None
 393:Core/Src/main.c ****   * @retval None
 394:Core/Src/main.c ****   */
 395:Core/Src/main.c **** static void MX_UART5_Init(void)
 396:Core/Src/main.c **** {
 397:Core/Src/main.c **** 
 398:Core/Src/main.c ****   /* USER CODE BEGIN UART5_Init 0 */
 399:Core/Src/main.c **** 
 400:Core/Src/main.c ****   /* USER CODE END UART5_Init 0 */
 401:Core/Src/main.c **** 
 402:Core/Src/main.c ****   /* USER CODE BEGIN UART5_Init 1 */
 403:Core/Src/main.c **** 
 404:Core/Src/main.c ****   /* USER CODE END UART5_Init 1 */
 405:Core/Src/main.c ****   huart5.Instance = UART5;
 406:Core/Src/main.c ****   huart5.Init.BaudRate = 115200;
 407:Core/Src/main.c ****   huart5.Init.WordLength = UART_WORDLENGTH_8B;
 408:Core/Src/main.c ****   huart5.Init.StopBits = UART_STOPBITS_1;
 409:Core/Src/main.c ****   huart5.Init.Parity = UART_PARITY_NONE;
 410:Core/Src/main.c ****   huart5.Init.Mode = UART_MODE_TX_RX;
 411:Core/Src/main.c ****   huart5.Init.HwFlowCtl = UART_HWCONTROL_NONE;
 412:Core/Src/main.c ****   huart5.Init.OverSampling = UART_OVERSAMPLING_16;
 413:Core/Src/main.c ****   if (HAL_UART_Init(&huart5) != HAL_OK)
 414:Core/Src/main.c ****   {
 415:Core/Src/main.c ****     Error_Handler();
 416:Core/Src/main.c ****   }
 417:Core/Src/main.c ****   /* USER CODE BEGIN UART5_Init 2 */
 418:Core/Src/main.c **** 
 419:Core/Src/main.c ****   /* USER CODE END UART5_Init 2 */
 420:Core/Src/main.c **** 
 421:Core/Src/main.c **** }
 422:Core/Src/main.c **** 
 423:Core/Src/main.c **** /**
 424:Core/Src/main.c ****   * @brief USART1 Initialization Function
 425:Core/Src/main.c ****   * @param None
 426:Core/Src/main.c ****   * @retval None
 427:Core/Src/main.c ****   */
 428:Core/Src/main.c **** static void MX_USART1_UART_Init(void)
 429:Core/Src/main.c **** {
 430:Core/Src/main.c **** 
ARM GAS  C:\Users\sangt\AppData\Local\Temp\ccci1Ijc.s 			page 9


 431:Core/Src/main.c ****   /* USER CODE BEGIN USART1_Init 0 */
 432:Core/Src/main.c **** 
 433:Core/Src/main.c ****   /* USER CODE END USART1_Init 0 */
 434:Core/Src/main.c **** 
 435:Core/Src/main.c ****   /* USER CODE BEGIN USART1_Init 1 */
 436:Core/Src/main.c **** 
 437:Core/Src/main.c ****   /* USER CODE END USART1_Init 1 */
 438:Core/Src/main.c ****   huart1.Instance = USART1;
 439:Core/Src/main.c ****   huart1.Init.BaudRate = 115200;
 440:Core/Src/main.c ****   huart1.Init.WordLength = UART_WORDLENGTH_8B;
 441:Core/Src/main.c ****   huart1.Init.StopBits = UART_STOPBITS_1;
 442:Core/Src/main.c ****   huart1.Init.Parity = UART_PARITY_NONE;
 443:Core/Src/main.c ****   huart1.Init.Mode = UART_MODE_TX_RX;
 444:Core/Src/main.c ****   huart1.Init.HwFlowCtl = UART_HWCONTROL_NONE;
 445:Core/Src/main.c ****   huart1.Init.OverSampling = UART_OVERSAMPLING_16;
 446:Core/Src/main.c ****   if (HAL_UART_Init(&huart1) != HAL_OK)
 447:Core/Src/main.c ****   {
 448:Core/Src/main.c ****     Error_Handler();
 449:Core/Src/main.c ****   }
 450:Core/Src/main.c ****   /* USER CODE BEGIN USART1_Init 2 */
 451:Core/Src/main.c **** 
 452:Core/Src/main.c ****   /* USER CODE END USART1_Init 2 */
 453:Core/Src/main.c **** 
 454:Core/Src/main.c **** }
 455:Core/Src/main.c **** 
 456:Core/Src/main.c **** /**
 457:Core/Src/main.c ****   * @brief USART3 Initialization Function
 458:Core/Src/main.c ****   * @param None
 459:Core/Src/main.c ****   * @retval None
 460:Core/Src/main.c ****   */
 461:Core/Src/main.c **** static void MX_USART3_UART_Init(void)
 462:Core/Src/main.c **** {
 463:Core/Src/main.c **** 
 464:Core/Src/main.c ****   /* USER CODE BEGIN USART3_Init 0 */
 465:Core/Src/main.c **** 
 466:Core/Src/main.c ****   /* USER CODE END USART3_Init 0 */
 467:Core/Src/main.c **** 
 468:Core/Src/main.c ****   /* USER CODE BEGIN USART3_Init 1 */
 469:Core/Src/main.c **** 
 470:Core/Src/main.c ****   /* USER CODE END USART3_Init 1 */
 471:Core/Src/main.c ****   huart3.Instance = USART3;
 472:Core/Src/main.c ****   huart3.Init.BaudRate = 115200;
 473:Core/Src/main.c ****   huart3.Init.WordLength = UART_WORDLENGTH_8B;
 474:Core/Src/main.c ****   huart3.Init.StopBits = UART_STOPBITS_1;
 475:Core/Src/main.c ****   huart3.Init.Parity = UART_PARITY_NONE;
 476:Core/Src/main.c ****   huart3.Init.Mode = UART_MODE_TX_RX;
 477:Core/Src/main.c ****   huart3.Init.HwFlowCtl = UART_HWCONTROL_NONE;
 478:Core/Src/main.c ****   huart3.Init.OverSampling = UART_OVERSAMPLING_16;
 479:Core/Src/main.c ****   if (HAL_UART_Init(&huart3) != HAL_OK)
 480:Core/Src/main.c ****   {
 481:Core/Src/main.c ****     Error_Handler();
 482:Core/Src/main.c ****   }
 483:Core/Src/main.c ****   /* USER CODE BEGIN USART3_Init 2 */
 484:Core/Src/main.c **** 
 485:Core/Src/main.c ****   /* USER CODE END USART3_Init 2 */
 486:Core/Src/main.c **** 
 487:Core/Src/main.c **** }
ARM GAS  C:\Users\sangt\AppData\Local\Temp\ccci1Ijc.s 			page 10


 488:Core/Src/main.c **** 
 489:Core/Src/main.c **** /**
 490:Core/Src/main.c ****   * Enable DMA controller clock
 491:Core/Src/main.c ****   */
 492:Core/Src/main.c **** static void MX_DMA_Init(void)
 493:Core/Src/main.c **** {
 494:Core/Src/main.c **** 
 495:Core/Src/main.c ****   /* DMA controller clock enable */
 496:Core/Src/main.c ****   __HAL_RCC_DMA2_CLK_ENABLE();
 497:Core/Src/main.c **** 
 498:Core/Src/main.c ****   /* DMA interrupt init */
 499:Core/Src/main.c ****   /* DMA2_Stream0_IRQn interrupt configuration */
 500:Core/Src/main.c ****   HAL_NVIC_SetPriority(DMA2_Stream0_IRQn, 5, 0);
 501:Core/Src/main.c ****   HAL_NVIC_EnableIRQ(DMA2_Stream0_IRQn);
 502:Core/Src/main.c **** 
 503:Core/Src/main.c **** }
 504:Core/Src/main.c **** 
 505:Core/Src/main.c **** /**
 506:Core/Src/main.c ****   * @brief GPIO Initialization Function
 507:Core/Src/main.c ****   * @param None
 508:Core/Src/main.c ****   * @retval None
 509:Core/Src/main.c ****   */
 510:Core/Src/main.c **** static void MX_GPIO_Init(void)
 511:Core/Src/main.c **** {
  28              		.loc 1 511 1 view -0
  29              		.cfi_startproc
  30              		@ args = 0, pretend = 0, frame = 40
  31              		@ frame_needed = 0, uses_anonymous_args = 0
  32 0000 30B5     		push	{r4, r5, lr}
  33              	.LCFI0:
  34              		.cfi_def_cfa_offset 12
  35              		.cfi_offset 4, -12
  36              		.cfi_offset 5, -8
  37              		.cfi_offset 14, -4
  38 0002 8BB0     		sub	sp, sp, #44
  39              	.LCFI1:
  40              		.cfi_def_cfa_offset 56
 512:Core/Src/main.c ****   GPIO_InitTypeDef GPIO_InitStruct = {0};
  41              		.loc 1 512 3 view .LVU1
  42              		.loc 1 512 20 is_stmt 0 view .LVU2
  43 0004 0024     		movs	r4, #0
  44 0006 0594     		str	r4, [sp, #20]
  45 0008 0694     		str	r4, [sp, #24]
  46 000a 0794     		str	r4, [sp, #28]
  47 000c 0894     		str	r4, [sp, #32]
  48 000e 0994     		str	r4, [sp, #36]
 513:Core/Src/main.c **** 
 514:Core/Src/main.c ****   /* GPIO Ports Clock Enable */
 515:Core/Src/main.c ****   __HAL_RCC_GPIOH_CLK_ENABLE();
  49              		.loc 1 515 3 is_stmt 1 view .LVU3
  50              	.LBB4:
  51              		.loc 1 515 3 view .LVU4
  52 0010 0094     		str	r4, [sp]
  53              		.loc 1 515 3 view .LVU5
  54 0012 264B     		ldr	r3, .L3
  55 0014 1A6B     		ldr	r2, [r3, #48]
  56 0016 42F08002 		orr	r2, r2, #128
ARM GAS  C:\Users\sangt\AppData\Local\Temp\ccci1Ijc.s 			page 11


  57 001a 1A63     		str	r2, [r3, #48]
  58              		.loc 1 515 3 view .LVU6
  59 001c 1A6B     		ldr	r2, [r3, #48]
  60 001e 02F08002 		and	r2, r2, #128
  61 0022 0092     		str	r2, [sp]
  62              		.loc 1 515 3 view .LVU7
  63 0024 009A     		ldr	r2, [sp]
  64              	.LBE4:
  65              		.loc 1 515 3 view .LVU8
 516:Core/Src/main.c ****   __HAL_RCC_GPIOC_CLK_ENABLE();
  66              		.loc 1 516 3 view .LVU9
  67              	.LBB5:
  68              		.loc 1 516 3 view .LVU10
  69 0026 0194     		str	r4, [sp, #4]
  70              		.loc 1 516 3 view .LVU11
  71 0028 1A6B     		ldr	r2, [r3, #48]
  72 002a 42F00402 		orr	r2, r2, #4
  73 002e 1A63     		str	r2, [r3, #48]
  74              		.loc 1 516 3 view .LVU12
  75 0030 1A6B     		ldr	r2, [r3, #48]
  76 0032 02F00402 		and	r2, r2, #4
  77 0036 0192     		str	r2, [sp, #4]
  78              		.loc 1 516 3 view .LVU13
  79 0038 019A     		ldr	r2, [sp, #4]
  80              	.LBE5:
  81              		.loc 1 516 3 view .LVU14
 517:Core/Src/main.c ****   __HAL_RCC_GPIOA_CLK_ENABLE();
  82              		.loc 1 517 3 view .LVU15
  83              	.LBB6:
  84              		.loc 1 517 3 view .LVU16
  85 003a 0294     		str	r4, [sp, #8]
  86              		.loc 1 517 3 view .LVU17
  87 003c 1A6B     		ldr	r2, [r3, #48]
  88 003e 42F00102 		orr	r2, r2, #1
  89 0042 1A63     		str	r2, [r3, #48]
  90              		.loc 1 517 3 view .LVU18
  91 0044 1A6B     		ldr	r2, [r3, #48]
  92 0046 02F00102 		and	r2, r2, #1
  93 004a 0292     		str	r2, [sp, #8]
  94              		.loc 1 517 3 view .LVU19
  95 004c 029A     		ldr	r2, [sp, #8]
  96              	.LBE6:
  97              		.loc 1 517 3 view .LVU20
 518:Core/Src/main.c ****   __HAL_RCC_GPIOB_CLK_ENABLE();
  98              		.loc 1 518 3 view .LVU21
  99              	.LBB7:
 100              		.loc 1 518 3 view .LVU22
 101 004e 0394     		str	r4, [sp, #12]
 102              		.loc 1 518 3 view .LVU23
 103 0050 1A6B     		ldr	r2, [r3, #48]
 104 0052 42F00202 		orr	r2, r2, #2
 105 0056 1A63     		str	r2, [r3, #48]
 106              		.loc 1 518 3 view .LVU24
 107 0058 1A6B     		ldr	r2, [r3, #48]
 108 005a 02F00202 		and	r2, r2, #2
 109 005e 0392     		str	r2, [sp, #12]
 110              		.loc 1 518 3 view .LVU25
ARM GAS  C:\Users\sangt\AppData\Local\Temp\ccci1Ijc.s 			page 12


 111 0060 039A     		ldr	r2, [sp, #12]
 112              	.LBE7:
 113              		.loc 1 518 3 view .LVU26
 519:Core/Src/main.c ****   __HAL_RCC_GPIOD_CLK_ENABLE();
 114              		.loc 1 519 3 view .LVU27
 115              	.LBB8:
 116              		.loc 1 519 3 view .LVU28
 117 0062 0494     		str	r4, [sp, #16]
 118              		.loc 1 519 3 view .LVU29
 119 0064 1A6B     		ldr	r2, [r3, #48]
 120 0066 42F00802 		orr	r2, r2, #8
 121 006a 1A63     		str	r2, [r3, #48]
 122              		.loc 1 519 3 view .LVU30
 123 006c 1B6B     		ldr	r3, [r3, #48]
 124 006e 03F00803 		and	r3, r3, #8
 125 0072 0493     		str	r3, [sp, #16]
 126              		.loc 1 519 3 view .LVU31
 127 0074 049B     		ldr	r3, [sp, #16]
 128              	.LBE8:
 129              		.loc 1 519 3 view .LVU32
 520:Core/Src/main.c **** 
 521:Core/Src/main.c ****   /*Configure GPIO pin Output Level */
 522:Core/Src/main.c ****   HAL_GPIO_WritePin(GPIOC, LED1_Pin|LED2_Pin|LED3_Pin|LED4_Pin, GPIO_PIN_SET);
 130              		.loc 1 522 3 view .LVU33
 131 0076 0E4D     		ldr	r5, .L3+4
 132 0078 0122     		movs	r2, #1
 133 007a 0F21     		movs	r1, #15
 134 007c 2846     		mov	r0, r5
 135 007e FFF7FEFF 		bl	HAL_GPIO_WritePin
 136              	.LVL0:
 523:Core/Src/main.c **** 
 524:Core/Src/main.c ****   /*Configure GPIO pins : LED1_Pin LED2_Pin LED3_Pin LED4_Pin */
 525:Core/Src/main.c ****   GPIO_InitStruct.Pin = LED1_Pin|LED2_Pin|LED3_Pin|LED4_Pin;
 137              		.loc 1 525 3 view .LVU34
 138              		.loc 1 525 23 is_stmt 0 view .LVU35
 139 0082 0F23     		movs	r3, #15
 140 0084 0593     		str	r3, [sp, #20]
 526:Core/Src/main.c ****   GPIO_InitStruct.Mode = GPIO_MODE_OUTPUT_PP;
 141              		.loc 1 526 3 is_stmt 1 view .LVU36
 142              		.loc 1 526 24 is_stmt 0 view .LVU37
 143 0086 0123     		movs	r3, #1
 144 0088 0693     		str	r3, [sp, #24]
 527:Core/Src/main.c ****   GPIO_InitStruct.Pull = GPIO_NOPULL;
 145              		.loc 1 527 3 is_stmt 1 view .LVU38
 146              		.loc 1 527 24 is_stmt 0 view .LVU39
 147 008a 0794     		str	r4, [sp, #28]
 528:Core/Src/main.c ****   GPIO_InitStruct.Speed = GPIO_SPEED_FREQ_LOW;
 148              		.loc 1 528 3 is_stmt 1 view .LVU40
 149              		.loc 1 528 25 is_stmt 0 view .LVU41
 150 008c 0894     		str	r4, [sp, #32]
 529:Core/Src/main.c ****   HAL_GPIO_Init(GPIOC, &GPIO_InitStruct);
 151              		.loc 1 529 3 is_stmt 1 view .LVU42
 152 008e 05A9     		add	r1, sp, #20
 153 0090 2846     		mov	r0, r5
 154 0092 FFF7FEFF 		bl	HAL_GPIO_Init
 155              	.LVL1:
 530:Core/Src/main.c **** 
ARM GAS  C:\Users\sangt\AppData\Local\Temp\ccci1Ijc.s 			page 13


 531:Core/Src/main.c ****   /*Configure GPIO pins : BTN1_Pin BTN2_Pin PC8_Pin PC9_Pin */
 532:Core/Src/main.c ****   GPIO_InitStruct.Pin = BTN1_Pin|BTN2_Pin|PC8_Pin|PC9_Pin;
 156              		.loc 1 532 3 view .LVU43
 157              		.loc 1 532 23 is_stmt 0 view .LVU44
 158 0096 4FF44C73 		mov	r3, #816
 159 009a 0593     		str	r3, [sp, #20]
 533:Core/Src/main.c ****   GPIO_InitStruct.Mode = GPIO_MODE_INPUT;
 160              		.loc 1 533 3 is_stmt 1 view .LVU45
 161              		.loc 1 533 24 is_stmt 0 view .LVU46
 162 009c 0694     		str	r4, [sp, #24]
 534:Core/Src/main.c ****   GPIO_InitStruct.Pull = GPIO_NOPULL;
 163              		.loc 1 534 3 is_stmt 1 view .LVU47
 164              		.loc 1 534 24 is_stmt 0 view .LVU48
 165 009e 0794     		str	r4, [sp, #28]
 535:Core/Src/main.c ****   HAL_GPIO_Init(GPIOC, &GPIO_InitStruct);
 166              		.loc 1 535 3 is_stmt 1 view .LVU49
 167 00a0 05A9     		add	r1, sp, #20
 168 00a2 2846     		mov	r0, r5
 169 00a4 FFF7FEFF 		bl	HAL_GPIO_Init
 170              	.LVL2:
 536:Core/Src/main.c **** 
 537:Core/Src/main.c **** }
 171              		.loc 1 537 1 is_stmt 0 view .LVU50
 172 00a8 0BB0     		add	sp, sp, #44
 173              	.LCFI2:
 174              		.cfi_def_cfa_offset 12
 175              		@ sp needed
 176 00aa 30BD     		pop	{r4, r5, pc}
 177              	.L4:
 178              		.align	2
 179              	.L3:
 180 00ac 00380240 		.word	1073887232
 181 00b0 00080240 		.word	1073874944
 182              		.cfi_endproc
 183              	.LFE250:
 185              		.section	.text.MX_DMA_Init,"ax",%progbits
 186              		.align	1
 187              		.syntax unified
 188              		.thumb
 189              		.thumb_func
 191              	MX_DMA_Init:
 192              	.LFB249:
 493:Core/Src/main.c **** 
 193              		.loc 1 493 1 is_stmt 1 view -0
 194              		.cfi_startproc
 195              		@ args = 0, pretend = 0, frame = 8
 196              		@ frame_needed = 0, uses_anonymous_args = 0
 197 0000 00B5     		push	{lr}
 198              	.LCFI3:
 199              		.cfi_def_cfa_offset 4
 200              		.cfi_offset 14, -4
 201 0002 83B0     		sub	sp, sp, #12
 202              	.LCFI4:
 203              		.cfi_def_cfa_offset 16
 496:Core/Src/main.c **** 
 204              		.loc 1 496 3 view .LVU52
 205              	.LBB9:
ARM GAS  C:\Users\sangt\AppData\Local\Temp\ccci1Ijc.s 			page 14


 496:Core/Src/main.c **** 
 206              		.loc 1 496 3 view .LVU53
 207 0004 0022     		movs	r2, #0
 208 0006 0192     		str	r2, [sp, #4]
 496:Core/Src/main.c **** 
 209              		.loc 1 496 3 view .LVU54
 210 0008 094B     		ldr	r3, .L7
 211 000a 196B     		ldr	r1, [r3, #48]
 212 000c 41F48001 		orr	r1, r1, #4194304
 213 0010 1963     		str	r1, [r3, #48]
 496:Core/Src/main.c **** 
 214              		.loc 1 496 3 view .LVU55
 215 0012 1B6B     		ldr	r3, [r3, #48]
 216 0014 03F48003 		and	r3, r3, #4194304
 217 0018 0193     		str	r3, [sp, #4]
 496:Core/Src/main.c **** 
 218              		.loc 1 496 3 view .LVU56
 219 001a 019B     		ldr	r3, [sp, #4]
 220              	.LBE9:
 496:Core/Src/main.c **** 
 221              		.loc 1 496 3 view .LVU57
 500:Core/Src/main.c ****   HAL_NVIC_EnableIRQ(DMA2_Stream0_IRQn);
 222              		.loc 1 500 3 view .LVU58
 223 001c 0521     		movs	r1, #5
 224 001e 3820     		movs	r0, #56
 225 0020 FFF7FEFF 		bl	HAL_NVIC_SetPriority
 226              	.LVL3:
 501:Core/Src/main.c **** 
 227              		.loc 1 501 3 view .LVU59
 228 0024 3820     		movs	r0, #56
 229 0026 FFF7FEFF 		bl	HAL_NVIC_EnableIRQ
 230              	.LVL4:
 503:Core/Src/main.c **** 
 231              		.loc 1 503 1 is_stmt 0 view .LVU60
 232 002a 03B0     		add	sp, sp, #12
 233              	.LCFI5:
 234              		.cfi_def_cfa_offset 4
 235              		@ sp needed
 236 002c 5DF804FB 		ldr	pc, [sp], #4
 237              	.L8:
 238              		.align	2
 239              	.L7:
 240 0030 00380240 		.word	1073887232
 241              		.cfi_endproc
 242              	.LFE249:
 244              		.section	.text.Default_task,"ax",%progbits
 245              		.align	1
 246              		.global	Default_task
 247              		.syntax unified
 248              		.thumb
 249              		.thumb_func
 251              	Default_task:
 252              	.LVL5:
 253              	.LFB252:
 538:Core/Src/main.c **** 
 539:Core/Src/main.c **** /* USER CODE BEGIN 4 */
 540:Core/Src/main.c **** PUTCHAR_PROTOTYPE {
ARM GAS  C:\Users\sangt\AppData\Local\Temp\ccci1Ijc.s 			page 15


 541:Core/Src/main.c **** 	/* Place your implementation of fputc here */
 542:Core/Src/main.c **** 	/* e.g. write a character to the USART3 and Loop until the end of transmission */
 543:Core/Src/main.c **** 	HAL_UART_Transmit(&huart1, (uint8_t*) &ch, 1, 0xFFFF);
 544:Core/Src/main.c **** 
 545:Core/Src/main.c **** 	return ch;
 546:Core/Src/main.c **** }
 547:Core/Src/main.c **** 
 548:Core/Src/main.c **** void Default_task (void *pvParameters) {
 254              		.loc 1 548 40 is_stmt 1 view -0
 255              		.cfi_startproc
 256              		@ Volatile: function does not return.
 257              		@ args = 0, pretend = 0, frame = 72
 258              		@ frame_needed = 0, uses_anonymous_args = 0
 259              		.loc 1 548 40 is_stmt 0 view .LVU62
 260 0000 00B5     		push	{lr}
 261              	.LCFI6:
 262              		.cfi_def_cfa_offset 4
 263              		.cfi_offset 14, -4
 264 0002 99B0     		sub	sp, sp, #100
 265              	.LCFI7:
 266              		.cfi_def_cfa_offset 104
 549:Core/Src/main.c ****   sensor_handle_t sensors;
 267              		.loc 1 549 3 is_stmt 1 view .LVU63
 550:Core/Src/main.c ****   sensors.enableMPU =  true;
 268              		.loc 1 550 3 view .LVU64
 269              		.loc 1 550 21 is_stmt 0 view .LVU65
 270 0004 0123     		movs	r3, #1
 271 0006 8DF85C30 		strb	r3, [sp, #92]
 551:Core/Src/main.c ****   sensors.mpuHandler.hi2c = &hi2c1;
 272              		.loc 1 551 3 is_stmt 1 view .LVU66
 273              		.loc 1 551 27 is_stmt 0 view .LVU67
 274 000a 1C4B     		ldr	r3, .L12
 275 000c 1093     		str	r3, [sp, #64]
 552:Core/Src/main.c ****   sensors.mpuHandler.Init.ui8AcceFullScale = MPU6050_ACCE_FULLSCALE_2G;
 276              		.loc 1 552 3 is_stmt 1 view .LVU68
 277              		.loc 1 552 44 is_stmt 0 view .LVU69
 278 000e 0023     		movs	r3, #0
 279 0010 8DF84830 		strb	r3, [sp, #72]
 553:Core/Src/main.c ****   sensors.mpuHandler.Init.ui8DLPF = MPU6050_DLPF_4;
 280              		.loc 1 553 3 is_stmt 1 view .LVU70
 281              		.loc 1 553 35 is_stmt 0 view .LVU71
 282 0014 0423     		movs	r3, #4
 283 0016 8DF84A30 		strb	r3, [sp, #74]
 554:Core/Src/main.c ****   sensors.mpuHandler.Init.ui8GyroFullScale = MPU6050_GYRO_FULLSCALE_500DPS;
 284              		.loc 1 554 3 is_stmt 1 view .LVU72
 285              		.loc 1 554 44 is_stmt 0 view .LVU73
 286 001a 0823     		movs	r3, #8
 287 001c 8DF84930 		strb	r3, [sp, #73]
 555:Core/Src/main.c ****   sensors_init(sensors);
 288              		.loc 1 555 3 is_stmt 1 view .LVU74
 289 0020 6C46     		mov	r4, sp
 290 0022 0DF14C0C 		add	ip, sp, #76
 291 0026 BCE80F00 		ldmia	ip!, {r0, r1, r2, r3}
 292              	.LVL6:
 293              		.loc 1 555 3 is_stmt 0 view .LVU75
 294 002a 0FC4     		stmia	r4!, {r0, r1, r2, r3}
 295 002c DCF80030 		ldr	r3, [ip]
ARM GAS  C:\Users\sangt\AppData\Local\Temp\ccci1Ijc.s 			page 16


 296 0030 2360     		str	r3, [r4]
 297 0032 10AB     		add	r3, sp, #64
 298 0034 0ECB     		ldm	r3, {r1, r2, r3}
 299 0036 06A8     		add	r0, sp, #24
 300 0038 FFF7FEFF 		bl	sensors_init
 301              	.LVL7:
 556:Core/Src/main.c ****   TickType_t xTimerStart = xTaskGetTickCount();
 302              		.loc 1 556 3 is_stmt 1 view .LVU76
 303              		.loc 1 556 28 is_stmt 0 view .LVU77
 304 003c FFF7FEFF 		bl	xTaskGetTickCount
 305              	.LVL8:
 306              		.loc 1 556 14 view .LVU78
 307 0040 0F90     		str	r0, [sp, #60]
 308              	.L10:
 557:Core/Src/main.c ****   for(;;) {
 309              		.loc 1 557 3 is_stmt 1 discriminator 1 view .LVU79
 558:Core/Src/main.c ****     HAL_GPIO_TogglePin(LED1_GPIO_Port, LED1_Pin);
 310              		.loc 1 558 5 discriminator 1 view .LVU80
 311 0042 0F4C     		ldr	r4, .L12+4
 312 0044 0121     		movs	r1, #1
 313 0046 2046     		mov	r0, r4
 314 0048 FFF7FEFF 		bl	HAL_GPIO_TogglePin
 315              	.LVL9:
 559:Core/Src/main.c ****     HAL_GPIO_TogglePin(LED2_GPIO_Port, LED2_Pin);
 316              		.loc 1 559 5 discriminator 1 view .LVU81
 317 004c 0221     		movs	r1, #2
 318 004e 2046     		mov	r0, r4
 319 0050 FFF7FEFF 		bl	HAL_GPIO_TogglePin
 320              	.LVL10:
 560:Core/Src/main.c ****     SensorData = sensors_update();
 321              		.loc 1 560 5 discriminator 1 view .LVU82
 322              		.loc 1 560 18 is_stmt 0 discriminator 1 view .LVU83
 323 0054 06A8     		add	r0, sp, #24
 324 0056 FFF7FEFF 		bl	sensors_update
 325              	.LVL11:
 326 005a 0A4C     		ldr	r4, .L12+8
 327 005c 0DF1180C 		add	ip, sp, #24
 328 0060 BCE80F00 		ldmia	ip!, {r0, r1, r2, r3}
 329 0064 0FC4     		stmia	r4!, {r0, r1, r2, r3}
 330 0066 9CE80F00 		ldm	ip, {r0, r1, r2, r3}
 331 006a 84E80F00 		stm	r4, {r0, r1, r2, r3}
 561:Core/Src/main.c ****     vTaskDelayUntil(&xTimerStart, 500);
 332              		.loc 1 561 5 is_stmt 1 discriminator 1 view .LVU84
 333 006e 4FF4FA71 		mov	r1, #500
 334 0072 0FA8     		add	r0, sp, #60
 335 0074 FFF7FEFF 		bl	vTaskDelayUntil
 336              	.LVL12:
 557:Core/Src/main.c ****     HAL_GPIO_TogglePin(LED1_GPIO_Port, LED1_Pin);
 337              		.loc 1 557 8 discriminator 1 view .LVU85
 338 0078 E3E7     		b	.L10
 339              	.L13:
 340 007a 00BF     		.align	2
 341              	.L12:
 342 007c 00000000 		.word	.LANCHOR0
 343 0080 00080240 		.word	1073874944
 344 0084 00000000 		.word	.LANCHOR1
 345              		.cfi_endproc
ARM GAS  C:\Users\sangt\AppData\Local\Temp\ccci1Ijc.s 			page 17


 346              	.LFE252:
 348              		.section	.text.__io_putchar,"ax",%progbits
 349              		.align	1
 350              		.global	__io_putchar
 351              		.syntax unified
 352              		.thumb
 353              		.thumb_func
 355              	__io_putchar:
 356              	.LVL13:
 357              	.LFB251:
 540:Core/Src/main.c **** 	/* Place your implementation of fputc here */
 358              		.loc 1 540 19 view -0
 359              		.cfi_startproc
 360              		@ args = 0, pretend = 0, frame = 8
 361              		@ frame_needed = 0, uses_anonymous_args = 0
 540:Core/Src/main.c **** 	/* Place your implementation of fputc here */
 362              		.loc 1 540 19 is_stmt 0 view .LVU87
 363 0000 00B5     		push	{lr}
 364              	.LCFI8:
 365              		.cfi_def_cfa_offset 4
 366              		.cfi_offset 14, -4
 367 0002 83B0     		sub	sp, sp, #12
 368              	.LCFI9:
 369              		.cfi_def_cfa_offset 16
 370 0004 0190     		str	r0, [sp, #4]
 543:Core/Src/main.c **** 
 371              		.loc 1 543 2 is_stmt 1 view .LVU88
 372 0006 4FF6FF73 		movw	r3, #65535
 373 000a 0122     		movs	r2, #1
 374 000c 01A9     		add	r1, sp, #4
 375 000e 0348     		ldr	r0, .L16
 376              	.LVL14:
 543:Core/Src/main.c **** 
 377              		.loc 1 543 2 is_stmt 0 view .LVU89
 378 0010 FFF7FEFF 		bl	HAL_UART_Transmit
 379              	.LVL15:
 545:Core/Src/main.c **** }
 380              		.loc 1 545 2 is_stmt 1 view .LVU90
 546:Core/Src/main.c **** 
 381              		.loc 1 546 1 is_stmt 0 view .LVU91
 382 0014 0198     		ldr	r0, [sp, #4]
 383 0016 03B0     		add	sp, sp, #12
 384              	.LCFI10:
 385              		.cfi_def_cfa_offset 4
 386              		@ sp needed
 387 0018 5DF804FB 		ldr	pc, [sp], #4
 388              	.L17:
 389              		.align	2
 390              	.L16:
 391 001c 00000000 		.word	.LANCHOR2
 392              		.cfi_endproc
 393              	.LFE251:
 395              		.section	.text.HAL_TIM_PeriodElapsedCallback,"ax",%progbits
 396              		.align	1
 397              		.global	HAL_TIM_PeriodElapsedCallback
 398              		.syntax unified
 399              		.thumb
ARM GAS  C:\Users\sangt\AppData\Local\Temp\ccci1Ijc.s 			page 18


 400              		.thumb_func
 402              	HAL_TIM_PeriodElapsedCallback:
 403              	.LVL16:
 404              	.LFB253:
 562:Core/Src/main.c ****   }
 563:Core/Src/main.c **** }
 564:Core/Src/main.c **** /* USER CODE END 4 */
 565:Core/Src/main.c **** 
 566:Core/Src/main.c **** 
 567:Core/Src/main.c **** /**
 568:Core/Src/main.c ****   * @brief  Period elapsed callback in non blocking mode
 569:Core/Src/main.c ****   * @note   This function is called  when TIM6 interrupt took place, inside
 570:Core/Src/main.c ****   * HAL_TIM_IRQHandler(). It makes a direct call to HAL_IncTick() to increment
 571:Core/Src/main.c ****   * a global variable "uwTick" used as application time base.
 572:Core/Src/main.c ****   * @param  htim : TIM handle
 573:Core/Src/main.c ****   * @retval None
 574:Core/Src/main.c ****   */
 575:Core/Src/main.c **** void HAL_TIM_PeriodElapsedCallback(TIM_HandleTypeDef *htim)
 576:Core/Src/main.c **** {
 405              		.loc 1 576 1 is_stmt 1 view -0
 406              		.cfi_startproc
 407              		@ args = 0, pretend = 0, frame = 0
 408              		@ frame_needed = 0, uses_anonymous_args = 0
 409              		.loc 1 576 1 is_stmt 0 view .LVU93
 410 0000 08B5     		push	{r3, lr}
 411              	.LCFI11:
 412              		.cfi_def_cfa_offset 8
 413              		.cfi_offset 3, -8
 414              		.cfi_offset 14, -4
 577:Core/Src/main.c ****   /* USER CODE BEGIN Callback 0 */
 578:Core/Src/main.c **** 
 579:Core/Src/main.c ****   /* USER CODE END Callback 0 */
 580:Core/Src/main.c ****   if (htim->Instance == TIM6) {
 415              		.loc 1 580 3 is_stmt 1 view .LVU94
 416              		.loc 1 580 11 is_stmt 0 view .LVU95
 417 0002 0268     		ldr	r2, [r0]
 418              		.loc 1 580 6 view .LVU96
 419 0004 034B     		ldr	r3, .L22
 420 0006 9A42     		cmp	r2, r3
 421 0008 00D0     		beq	.L21
 422              	.LVL17:
 423              	.L18:
 581:Core/Src/main.c ****     HAL_IncTick();
 582:Core/Src/main.c ****   }
 583:Core/Src/main.c ****   /* USER CODE BEGIN Callback 1 */
 584:Core/Src/main.c **** 
 585:Core/Src/main.c ****   /* USER CODE END Callback 1 */
 586:Core/Src/main.c **** }
 424              		.loc 1 586 1 view .LVU97
 425 000a 08BD     		pop	{r3, pc}
 426              	.LVL18:
 427              	.L21:
 581:Core/Src/main.c ****     HAL_IncTick();
 428              		.loc 1 581 5 is_stmt 1 view .LVU98
 429 000c FFF7FEFF 		bl	HAL_IncTick
 430              	.LVL19:
 431              		.loc 1 586 1 is_stmt 0 view .LVU99
ARM GAS  C:\Users\sangt\AppData\Local\Temp\ccci1Ijc.s 			page 19


 432 0010 FBE7     		b	.L18
 433              	.L23:
 434 0012 00BF     		.align	2
 435              	.L22:
 436 0014 00100040 		.word	1073745920
 437              		.cfi_endproc
 438              	.LFE253:
 440              		.section	.text.Error_Handler,"ax",%progbits
 441              		.align	1
 442              		.global	Error_Handler
 443              		.syntax unified
 444              		.thumb
 445              		.thumb_func
 447              	Error_Handler:
 448              	.LFB254:
 587:Core/Src/main.c **** 
 588:Core/Src/main.c **** /**
 589:Core/Src/main.c ****   * @brief  This function is executed in case of error occurrence.
 590:Core/Src/main.c ****   * @retval None
 591:Core/Src/main.c ****   */
 592:Core/Src/main.c **** void Error_Handler(void)
 593:Core/Src/main.c **** {
 449              		.loc 1 593 1 is_stmt 1 view -0
 450              		.cfi_startproc
 451              		@ Volatile: function does not return.
 452              		@ args = 0, pretend = 0, frame = 0
 453              		@ frame_needed = 0, uses_anonymous_args = 0
 454              		@ link register save eliminated.
 594:Core/Src/main.c ****   /* USER CODE BEGIN Error_Handler_Debug */
 595:Core/Src/main.c ****   /* User can add his own implementation to report the HAL error return state */
 596:Core/Src/main.c ****   __disable_irq();
 455              		.loc 1 596 3 view .LVU101
 456              	.LBB10:
 457              	.LBI10:
 458              		.file 2 "Drivers/CMSIS/Include/cmsis_gcc.h"
   1:Drivers/CMSIS/Include/cmsis_gcc.h **** /**************************************************************************//**
   2:Drivers/CMSIS/Include/cmsis_gcc.h ****  * @file     cmsis_gcc.h
   3:Drivers/CMSIS/Include/cmsis_gcc.h ****  * @brief    CMSIS compiler GCC header file
   4:Drivers/CMSIS/Include/cmsis_gcc.h ****  * @version  V5.0.4
   5:Drivers/CMSIS/Include/cmsis_gcc.h ****  * @date     09. April 2018
   6:Drivers/CMSIS/Include/cmsis_gcc.h ****  ******************************************************************************/
   7:Drivers/CMSIS/Include/cmsis_gcc.h **** /*
   8:Drivers/CMSIS/Include/cmsis_gcc.h ****  * Copyright (c) 2009-2018 Arm Limited. All rights reserved.
   9:Drivers/CMSIS/Include/cmsis_gcc.h ****  *
  10:Drivers/CMSIS/Include/cmsis_gcc.h ****  * SPDX-License-Identifier: Apache-2.0
  11:Drivers/CMSIS/Include/cmsis_gcc.h ****  *
  12:Drivers/CMSIS/Include/cmsis_gcc.h ****  * Licensed under the Apache License, Version 2.0 (the License); you may
  13:Drivers/CMSIS/Include/cmsis_gcc.h ****  * not use this file except in compliance with the License.
  14:Drivers/CMSIS/Include/cmsis_gcc.h ****  * You may obtain a copy of the License at
  15:Drivers/CMSIS/Include/cmsis_gcc.h ****  *
  16:Drivers/CMSIS/Include/cmsis_gcc.h ****  * www.apache.org/licenses/LICENSE-2.0
  17:Drivers/CMSIS/Include/cmsis_gcc.h ****  *
  18:Drivers/CMSIS/Include/cmsis_gcc.h ****  * Unless required by applicable law or agreed to in writing, software
  19:Drivers/CMSIS/Include/cmsis_gcc.h ****  * distributed under the License is distributed on an AS IS BASIS, WITHOUT
  20:Drivers/CMSIS/Include/cmsis_gcc.h ****  * WARRANTIES OR CONDITIONS OF ANY KIND, either express or implied.
  21:Drivers/CMSIS/Include/cmsis_gcc.h ****  * See the License for the specific language governing permissions and
  22:Drivers/CMSIS/Include/cmsis_gcc.h ****  * limitations under the License.
ARM GAS  C:\Users\sangt\AppData\Local\Temp\ccci1Ijc.s 			page 20


  23:Drivers/CMSIS/Include/cmsis_gcc.h ****  */
  24:Drivers/CMSIS/Include/cmsis_gcc.h **** 
  25:Drivers/CMSIS/Include/cmsis_gcc.h **** #ifndef __CMSIS_GCC_H
  26:Drivers/CMSIS/Include/cmsis_gcc.h **** #define __CMSIS_GCC_H
  27:Drivers/CMSIS/Include/cmsis_gcc.h **** 
  28:Drivers/CMSIS/Include/cmsis_gcc.h **** /* ignore some GCC warnings */
  29:Drivers/CMSIS/Include/cmsis_gcc.h **** #pragma GCC diagnostic push
  30:Drivers/CMSIS/Include/cmsis_gcc.h **** #pragma GCC diagnostic ignored "-Wsign-conversion"
  31:Drivers/CMSIS/Include/cmsis_gcc.h **** #pragma GCC diagnostic ignored "-Wconversion"
  32:Drivers/CMSIS/Include/cmsis_gcc.h **** #pragma GCC diagnostic ignored "-Wunused-parameter"
  33:Drivers/CMSIS/Include/cmsis_gcc.h **** 
  34:Drivers/CMSIS/Include/cmsis_gcc.h **** /* Fallback for __has_builtin */
  35:Drivers/CMSIS/Include/cmsis_gcc.h **** #ifndef __has_builtin
  36:Drivers/CMSIS/Include/cmsis_gcc.h ****   #define __has_builtin(x) (0)
  37:Drivers/CMSIS/Include/cmsis_gcc.h **** #endif
  38:Drivers/CMSIS/Include/cmsis_gcc.h **** 
  39:Drivers/CMSIS/Include/cmsis_gcc.h **** /* CMSIS compiler specific defines */
  40:Drivers/CMSIS/Include/cmsis_gcc.h **** #ifndef   __ASM
  41:Drivers/CMSIS/Include/cmsis_gcc.h ****   #define __ASM                                  __asm
  42:Drivers/CMSIS/Include/cmsis_gcc.h **** #endif
  43:Drivers/CMSIS/Include/cmsis_gcc.h **** #ifndef   __INLINE
  44:Drivers/CMSIS/Include/cmsis_gcc.h ****   #define __INLINE                               inline
  45:Drivers/CMSIS/Include/cmsis_gcc.h **** #endif
  46:Drivers/CMSIS/Include/cmsis_gcc.h **** #ifndef   __STATIC_INLINE
  47:Drivers/CMSIS/Include/cmsis_gcc.h ****   #define __STATIC_INLINE                        static inline
  48:Drivers/CMSIS/Include/cmsis_gcc.h **** #endif
  49:Drivers/CMSIS/Include/cmsis_gcc.h **** #ifndef   __STATIC_FORCEINLINE                 
  50:Drivers/CMSIS/Include/cmsis_gcc.h ****   #define __STATIC_FORCEINLINE                   __attribute__((always_inline)) static inline
  51:Drivers/CMSIS/Include/cmsis_gcc.h **** #endif                                           
  52:Drivers/CMSIS/Include/cmsis_gcc.h **** #ifndef   __NO_RETURN
  53:Drivers/CMSIS/Include/cmsis_gcc.h ****   #define __NO_RETURN                            __attribute__((__noreturn__))
  54:Drivers/CMSIS/Include/cmsis_gcc.h **** #endif
  55:Drivers/CMSIS/Include/cmsis_gcc.h **** #ifndef   __USED
  56:Drivers/CMSIS/Include/cmsis_gcc.h ****   #define __USED                                 __attribute__((used))
  57:Drivers/CMSIS/Include/cmsis_gcc.h **** #endif
  58:Drivers/CMSIS/Include/cmsis_gcc.h **** #ifndef   __WEAK
  59:Drivers/CMSIS/Include/cmsis_gcc.h ****   #define __WEAK                                 __attribute__((weak))
  60:Drivers/CMSIS/Include/cmsis_gcc.h **** #endif
  61:Drivers/CMSIS/Include/cmsis_gcc.h **** #ifndef   __PACKED
  62:Drivers/CMSIS/Include/cmsis_gcc.h ****   #define __PACKED                               __attribute__((packed, aligned(1)))
  63:Drivers/CMSIS/Include/cmsis_gcc.h **** #endif
  64:Drivers/CMSIS/Include/cmsis_gcc.h **** #ifndef   __PACKED_STRUCT
  65:Drivers/CMSIS/Include/cmsis_gcc.h ****   #define __PACKED_STRUCT                        struct __attribute__((packed, aligned(1)))
  66:Drivers/CMSIS/Include/cmsis_gcc.h **** #endif
  67:Drivers/CMSIS/Include/cmsis_gcc.h **** #ifndef   __PACKED_UNION
  68:Drivers/CMSIS/Include/cmsis_gcc.h ****   #define __PACKED_UNION                         union __attribute__((packed, aligned(1)))
  69:Drivers/CMSIS/Include/cmsis_gcc.h **** #endif
  70:Drivers/CMSIS/Include/cmsis_gcc.h **** #ifndef   __UNALIGNED_UINT32        /* deprecated */
  71:Drivers/CMSIS/Include/cmsis_gcc.h ****   #pragma GCC diagnostic push
  72:Drivers/CMSIS/Include/cmsis_gcc.h ****   #pragma GCC diagnostic ignored "-Wpacked"
  73:Drivers/CMSIS/Include/cmsis_gcc.h ****   #pragma GCC diagnostic ignored "-Wattributes"
  74:Drivers/CMSIS/Include/cmsis_gcc.h ****   struct __attribute__((packed)) T_UINT32 { uint32_t v; };
  75:Drivers/CMSIS/Include/cmsis_gcc.h ****   #pragma GCC diagnostic pop
  76:Drivers/CMSIS/Include/cmsis_gcc.h ****   #define __UNALIGNED_UINT32(x)                  (((struct T_UINT32 *)(x))->v)
  77:Drivers/CMSIS/Include/cmsis_gcc.h **** #endif
  78:Drivers/CMSIS/Include/cmsis_gcc.h **** #ifndef   __UNALIGNED_UINT16_WRITE
  79:Drivers/CMSIS/Include/cmsis_gcc.h ****   #pragma GCC diagnostic push
ARM GAS  C:\Users\sangt\AppData\Local\Temp\ccci1Ijc.s 			page 21


  80:Drivers/CMSIS/Include/cmsis_gcc.h ****   #pragma GCC diagnostic ignored "-Wpacked"
  81:Drivers/CMSIS/Include/cmsis_gcc.h ****   #pragma GCC diagnostic ignored "-Wattributes"
  82:Drivers/CMSIS/Include/cmsis_gcc.h ****   __PACKED_STRUCT T_UINT16_WRITE { uint16_t v; };
  83:Drivers/CMSIS/Include/cmsis_gcc.h ****   #pragma GCC diagnostic pop
  84:Drivers/CMSIS/Include/cmsis_gcc.h ****   #define __UNALIGNED_UINT16_WRITE(addr, val)    (void)((((struct T_UINT16_WRITE *)(void *)(addr))-
  85:Drivers/CMSIS/Include/cmsis_gcc.h **** #endif
  86:Drivers/CMSIS/Include/cmsis_gcc.h **** #ifndef   __UNALIGNED_UINT16_READ
  87:Drivers/CMSIS/Include/cmsis_gcc.h ****   #pragma GCC diagnostic push
  88:Drivers/CMSIS/Include/cmsis_gcc.h ****   #pragma GCC diagnostic ignored "-Wpacked"
  89:Drivers/CMSIS/Include/cmsis_gcc.h ****   #pragma GCC diagnostic ignored "-Wattributes"
  90:Drivers/CMSIS/Include/cmsis_gcc.h ****   __PACKED_STRUCT T_UINT16_READ { uint16_t v; };
  91:Drivers/CMSIS/Include/cmsis_gcc.h ****   #pragma GCC diagnostic pop
  92:Drivers/CMSIS/Include/cmsis_gcc.h ****   #define __UNALIGNED_UINT16_READ(addr)          (((const struct T_UINT16_READ *)(const void *)(add
  93:Drivers/CMSIS/Include/cmsis_gcc.h **** #endif
  94:Drivers/CMSIS/Include/cmsis_gcc.h **** #ifndef   __UNALIGNED_UINT32_WRITE
  95:Drivers/CMSIS/Include/cmsis_gcc.h ****   #pragma GCC diagnostic push
  96:Drivers/CMSIS/Include/cmsis_gcc.h ****   #pragma GCC diagnostic ignored "-Wpacked"
  97:Drivers/CMSIS/Include/cmsis_gcc.h ****   #pragma GCC diagnostic ignored "-Wattributes"
  98:Drivers/CMSIS/Include/cmsis_gcc.h ****   __PACKED_STRUCT T_UINT32_WRITE { uint32_t v; };
  99:Drivers/CMSIS/Include/cmsis_gcc.h ****   #pragma GCC diagnostic pop
 100:Drivers/CMSIS/Include/cmsis_gcc.h ****   #define __UNALIGNED_UINT32_WRITE(addr, val)    (void)((((struct T_UINT32_WRITE *)(void *)(addr))-
 101:Drivers/CMSIS/Include/cmsis_gcc.h **** #endif
 102:Drivers/CMSIS/Include/cmsis_gcc.h **** #ifndef   __UNALIGNED_UINT32_READ
 103:Drivers/CMSIS/Include/cmsis_gcc.h ****   #pragma GCC diagnostic push
 104:Drivers/CMSIS/Include/cmsis_gcc.h ****   #pragma GCC diagnostic ignored "-Wpacked"
 105:Drivers/CMSIS/Include/cmsis_gcc.h ****   #pragma GCC diagnostic ignored "-Wattributes"
 106:Drivers/CMSIS/Include/cmsis_gcc.h ****   __PACKED_STRUCT T_UINT32_READ { uint32_t v; };
 107:Drivers/CMSIS/Include/cmsis_gcc.h ****   #pragma GCC diagnostic pop
 108:Drivers/CMSIS/Include/cmsis_gcc.h ****   #define __UNALIGNED_UINT32_READ(addr)          (((const struct T_UINT32_READ *)(const void *)(add
 109:Drivers/CMSIS/Include/cmsis_gcc.h **** #endif
 110:Drivers/CMSIS/Include/cmsis_gcc.h **** #ifndef   __ALIGNED
 111:Drivers/CMSIS/Include/cmsis_gcc.h ****   #define __ALIGNED(x)                           __attribute__((aligned(x)))
 112:Drivers/CMSIS/Include/cmsis_gcc.h **** #endif
 113:Drivers/CMSIS/Include/cmsis_gcc.h **** #ifndef   __RESTRICT
 114:Drivers/CMSIS/Include/cmsis_gcc.h ****   #define __RESTRICT                             __restrict
 115:Drivers/CMSIS/Include/cmsis_gcc.h **** #endif
 116:Drivers/CMSIS/Include/cmsis_gcc.h **** 
 117:Drivers/CMSIS/Include/cmsis_gcc.h **** 
 118:Drivers/CMSIS/Include/cmsis_gcc.h **** /* ###########################  Core Function Access  ########################### */
 119:Drivers/CMSIS/Include/cmsis_gcc.h **** /** \ingroup  CMSIS_Core_FunctionInterface
 120:Drivers/CMSIS/Include/cmsis_gcc.h ****     \defgroup CMSIS_Core_RegAccFunctions CMSIS Core Register Access Functions
 121:Drivers/CMSIS/Include/cmsis_gcc.h ****   @{
 122:Drivers/CMSIS/Include/cmsis_gcc.h ****  */
 123:Drivers/CMSIS/Include/cmsis_gcc.h **** 
 124:Drivers/CMSIS/Include/cmsis_gcc.h **** /**
 125:Drivers/CMSIS/Include/cmsis_gcc.h ****   \brief   Enable IRQ Interrupts
 126:Drivers/CMSIS/Include/cmsis_gcc.h ****   \details Enables IRQ interrupts by clearing the I-bit in the CPSR.
 127:Drivers/CMSIS/Include/cmsis_gcc.h ****            Can only be executed in Privileged modes.
 128:Drivers/CMSIS/Include/cmsis_gcc.h ****  */
 129:Drivers/CMSIS/Include/cmsis_gcc.h **** __STATIC_FORCEINLINE void __enable_irq(void)
 130:Drivers/CMSIS/Include/cmsis_gcc.h **** {
 131:Drivers/CMSIS/Include/cmsis_gcc.h ****   __ASM volatile ("cpsie i" : : : "memory");
 132:Drivers/CMSIS/Include/cmsis_gcc.h **** }
 133:Drivers/CMSIS/Include/cmsis_gcc.h **** 
 134:Drivers/CMSIS/Include/cmsis_gcc.h **** 
 135:Drivers/CMSIS/Include/cmsis_gcc.h **** /**
 136:Drivers/CMSIS/Include/cmsis_gcc.h ****   \brief   Disable IRQ Interrupts
ARM GAS  C:\Users\sangt\AppData\Local\Temp\ccci1Ijc.s 			page 22


 137:Drivers/CMSIS/Include/cmsis_gcc.h ****   \details Disables IRQ interrupts by setting the I-bit in the CPSR.
 138:Drivers/CMSIS/Include/cmsis_gcc.h ****            Can only be executed in Privileged modes.
 139:Drivers/CMSIS/Include/cmsis_gcc.h ****  */
 140:Drivers/CMSIS/Include/cmsis_gcc.h **** __STATIC_FORCEINLINE void __disable_irq(void)
 459              		.loc 2 140 27 view .LVU102
 460              	.LBB11:
 141:Drivers/CMSIS/Include/cmsis_gcc.h **** {
 142:Drivers/CMSIS/Include/cmsis_gcc.h ****   __ASM volatile ("cpsid i" : : : "memory");
 461              		.loc 2 142 3 view .LVU103
 462              		.syntax unified
 463              	@ 142 "Drivers/CMSIS/Include/cmsis_gcc.h" 1
 464 0000 72B6     		cpsid i
 465              	@ 0 "" 2
 466              		.thumb
 467              		.syntax unified
 468              	.L25:
 469              	.LBE11:
 470              	.LBE10:
 597:Core/Src/main.c ****   while (1)
 471              		.loc 1 597 3 discriminator 1 view .LVU104
 598:Core/Src/main.c ****   {
 599:Core/Src/main.c ****   }
 472              		.loc 1 599 3 discriminator 1 view .LVU105
 597:Core/Src/main.c ****   while (1)
 473              		.loc 1 597 9 discriminator 1 view .LVU106
 474 0002 FEE7     		b	.L25
 475              		.cfi_endproc
 476              	.LFE254:
 478              		.section	.text.MX_USART1_UART_Init,"ax",%progbits
 479              		.align	1
 480              		.syntax unified
 481              		.thumb
 482              		.thumb_func
 484              	MX_USART1_UART_Init:
 485              	.LFB247:
 429:Core/Src/main.c **** 
 486              		.loc 1 429 1 view -0
 487              		.cfi_startproc
 488              		@ args = 0, pretend = 0, frame = 0
 489              		@ frame_needed = 0, uses_anonymous_args = 0
 490 0000 08B5     		push	{r3, lr}
 491              	.LCFI12:
 492              		.cfi_def_cfa_offset 8
 493              		.cfi_offset 3, -8
 494              		.cfi_offset 14, -4
 438:Core/Src/main.c ****   huart1.Init.BaudRate = 115200;
 495              		.loc 1 438 3 view .LVU108
 438:Core/Src/main.c ****   huart1.Init.BaudRate = 115200;
 496              		.loc 1 438 19 is_stmt 0 view .LVU109
 497 0002 0A48     		ldr	r0, .L30
 498 0004 0A4B     		ldr	r3, .L30+4
 499 0006 0360     		str	r3, [r0]
 439:Core/Src/main.c ****   huart1.Init.WordLength = UART_WORDLENGTH_8B;
 500              		.loc 1 439 3 is_stmt 1 view .LVU110
 439:Core/Src/main.c ****   huart1.Init.WordLength = UART_WORDLENGTH_8B;
 501              		.loc 1 439 24 is_stmt 0 view .LVU111
 502 0008 4FF4E133 		mov	r3, #115200
ARM GAS  C:\Users\sangt\AppData\Local\Temp\ccci1Ijc.s 			page 23


 503 000c 4360     		str	r3, [r0, #4]
 440:Core/Src/main.c ****   huart1.Init.StopBits = UART_STOPBITS_1;
 504              		.loc 1 440 3 is_stmt 1 view .LVU112
 440:Core/Src/main.c ****   huart1.Init.StopBits = UART_STOPBITS_1;
 505              		.loc 1 440 26 is_stmt 0 view .LVU113
 506 000e 0023     		movs	r3, #0
 507 0010 8360     		str	r3, [r0, #8]
 441:Core/Src/main.c ****   huart1.Init.Parity = UART_PARITY_NONE;
 508              		.loc 1 441 3 is_stmt 1 view .LVU114
 441:Core/Src/main.c ****   huart1.Init.Parity = UART_PARITY_NONE;
 509              		.loc 1 441 24 is_stmt 0 view .LVU115
 510 0012 C360     		str	r3, [r0, #12]
 442:Core/Src/main.c ****   huart1.Init.Mode = UART_MODE_TX_RX;
 511              		.loc 1 442 3 is_stmt 1 view .LVU116
 442:Core/Src/main.c ****   huart1.Init.Mode = UART_MODE_TX_RX;
 512              		.loc 1 442 22 is_stmt 0 view .LVU117
 513 0014 0361     		str	r3, [r0, #16]
 443:Core/Src/main.c ****   huart1.Init.HwFlowCtl = UART_HWCONTROL_NONE;
 514              		.loc 1 443 3 is_stmt 1 view .LVU118
 443:Core/Src/main.c ****   huart1.Init.HwFlowCtl = UART_HWCONTROL_NONE;
 515              		.loc 1 443 20 is_stmt 0 view .LVU119
 516 0016 0C22     		movs	r2, #12
 517 0018 4261     		str	r2, [r0, #20]
 444:Core/Src/main.c ****   huart1.Init.OverSampling = UART_OVERSAMPLING_16;
 518              		.loc 1 444 3 is_stmt 1 view .LVU120
 444:Core/Src/main.c ****   huart1.Init.OverSampling = UART_OVERSAMPLING_16;
 519              		.loc 1 444 25 is_stmt 0 view .LVU121
 520 001a 8361     		str	r3, [r0, #24]
 445:Core/Src/main.c ****   if (HAL_UART_Init(&huart1) != HAL_OK)
 521              		.loc 1 445 3 is_stmt 1 view .LVU122
 445:Core/Src/main.c ****   if (HAL_UART_Init(&huart1) != HAL_OK)
 522              		.loc 1 445 28 is_stmt 0 view .LVU123
 523 001c C361     		str	r3, [r0, #28]
 446:Core/Src/main.c ****   {
 524              		.loc 1 446 3 is_stmt 1 view .LVU124
 446:Core/Src/main.c ****   {
 525              		.loc 1 446 7 is_stmt 0 view .LVU125
 526 001e FFF7FEFF 		bl	HAL_UART_Init
 527              	.LVL20:
 446:Core/Src/main.c ****   {
 528              		.loc 1 446 6 view .LVU126
 529 0022 00B9     		cbnz	r0, .L29
 454:Core/Src/main.c **** 
 530              		.loc 1 454 1 view .LVU127
 531 0024 08BD     		pop	{r3, pc}
 532              	.L29:
 448:Core/Src/main.c ****   }
 533              		.loc 1 448 5 is_stmt 1 view .LVU128
 534 0026 FFF7FEFF 		bl	Error_Handler
 535              	.LVL21:
 536              	.L31:
 537 002a 00BF     		.align	2
 538              	.L30:
 539 002c 00000000 		.word	.LANCHOR2
 540 0030 00100140 		.word	1073811456
 541              		.cfi_endproc
 542              	.LFE247:
ARM GAS  C:\Users\sangt\AppData\Local\Temp\ccci1Ijc.s 			page 24


 544              		.section	.text.MX_ADC1_Init,"ax",%progbits
 545              		.align	1
 546              		.syntax unified
 547              		.thumb
 548              		.thumb_func
 550              	MX_ADC1_Init:
 551              	.LFB242:
 207:Core/Src/main.c **** 
 552              		.loc 1 207 1 view -0
 553              		.cfi_startproc
 554              		@ args = 0, pretend = 0, frame = 16
 555              		@ frame_needed = 0, uses_anonymous_args = 0
 556 0000 00B5     		push	{lr}
 557              	.LCFI13:
 558              		.cfi_def_cfa_offset 4
 559              		.cfi_offset 14, -4
 560 0002 85B0     		sub	sp, sp, #20
 561              	.LCFI14:
 562              		.cfi_def_cfa_offset 24
 213:Core/Src/main.c **** 
 563              		.loc 1 213 3 view .LVU130
 213:Core/Src/main.c **** 
 564              		.loc 1 213 26 is_stmt 0 view .LVU131
 565 0004 0023     		movs	r3, #0
 566 0006 0093     		str	r3, [sp]
 567 0008 0193     		str	r3, [sp, #4]
 568 000a 0293     		str	r3, [sp, #8]
 569 000c 0393     		str	r3, [sp, #12]
 220:Core/Src/main.c ****   hadc1.Init.ClockPrescaler = ADC_CLOCK_SYNC_PCLK_DIV2;
 570              		.loc 1 220 3 is_stmt 1 view .LVU132
 220:Core/Src/main.c ****   hadc1.Init.ClockPrescaler = ADC_CLOCK_SYNC_PCLK_DIV2;
 571              		.loc 1 220 18 is_stmt 0 view .LVU133
 572 000e 1348     		ldr	r0, .L38
 573 0010 134A     		ldr	r2, .L38+4
 574 0012 0260     		str	r2, [r0]
 221:Core/Src/main.c ****   hadc1.Init.Resolution = ADC_RESOLUTION_12B;
 575              		.loc 1 221 3 is_stmt 1 view .LVU134
 221:Core/Src/main.c ****   hadc1.Init.Resolution = ADC_RESOLUTION_12B;
 576              		.loc 1 221 29 is_stmt 0 view .LVU135
 577 0014 4360     		str	r3, [r0, #4]
 222:Core/Src/main.c ****   hadc1.Init.ScanConvMode = DISABLE;
 578              		.loc 1 222 3 is_stmt 1 view .LVU136
 222:Core/Src/main.c ****   hadc1.Init.ScanConvMode = DISABLE;
 579              		.loc 1 222 25 is_stmt 0 view .LVU137
 580 0016 8360     		str	r3, [r0, #8]
 223:Core/Src/main.c ****   hadc1.Init.ContinuousConvMode = DISABLE;
 581              		.loc 1 223 3 is_stmt 1 view .LVU138
 223:Core/Src/main.c ****   hadc1.Init.ContinuousConvMode = DISABLE;
 582              		.loc 1 223 27 is_stmt 0 view .LVU139
 583 0018 0361     		str	r3, [r0, #16]
 224:Core/Src/main.c ****   hadc1.Init.DiscontinuousConvMode = DISABLE;
 584              		.loc 1 224 3 is_stmt 1 view .LVU140
 224:Core/Src/main.c ****   hadc1.Init.DiscontinuousConvMode = DISABLE;
 585              		.loc 1 224 33 is_stmt 0 view .LVU141
 586 001a 0376     		strb	r3, [r0, #24]
 225:Core/Src/main.c ****   hadc1.Init.ExternalTrigConvEdge = ADC_EXTERNALTRIGCONVEDGE_NONE;
 587              		.loc 1 225 3 is_stmt 1 view .LVU142
ARM GAS  C:\Users\sangt\AppData\Local\Temp\ccci1Ijc.s 			page 25


 225:Core/Src/main.c ****   hadc1.Init.ExternalTrigConvEdge = ADC_EXTERNALTRIGCONVEDGE_NONE;
 588              		.loc 1 225 36 is_stmt 0 view .LVU143
 589 001c 80F82030 		strb	r3, [r0, #32]
 226:Core/Src/main.c ****   hadc1.Init.ExternalTrigConv = ADC_SOFTWARE_START;
 590              		.loc 1 226 3 is_stmt 1 view .LVU144
 226:Core/Src/main.c ****   hadc1.Init.ExternalTrigConv = ADC_SOFTWARE_START;
 591              		.loc 1 226 35 is_stmt 0 view .LVU145
 592 0020 C362     		str	r3, [r0, #44]
 227:Core/Src/main.c ****   hadc1.Init.DataAlign = ADC_DATAALIGN_RIGHT;
 593              		.loc 1 227 3 is_stmt 1 view .LVU146
 227:Core/Src/main.c ****   hadc1.Init.DataAlign = ADC_DATAALIGN_RIGHT;
 594              		.loc 1 227 31 is_stmt 0 view .LVU147
 595 0022 104A     		ldr	r2, .L38+8
 596 0024 8262     		str	r2, [r0, #40]
 228:Core/Src/main.c ****   hadc1.Init.NbrOfConversion = 1;
 597              		.loc 1 228 3 is_stmt 1 view .LVU148
 228:Core/Src/main.c ****   hadc1.Init.NbrOfConversion = 1;
 598              		.loc 1 228 24 is_stmt 0 view .LVU149
 599 0026 C360     		str	r3, [r0, #12]
 229:Core/Src/main.c ****   hadc1.Init.DMAContinuousRequests = DISABLE;
 600              		.loc 1 229 3 is_stmt 1 view .LVU150
 229:Core/Src/main.c ****   hadc1.Init.DMAContinuousRequests = DISABLE;
 601              		.loc 1 229 30 is_stmt 0 view .LVU151
 602 0028 0122     		movs	r2, #1
 603 002a C261     		str	r2, [r0, #28]
 230:Core/Src/main.c ****   hadc1.Init.EOCSelection = ADC_EOC_SINGLE_CONV;
 604              		.loc 1 230 3 is_stmt 1 view .LVU152
 230:Core/Src/main.c ****   hadc1.Init.EOCSelection = ADC_EOC_SINGLE_CONV;
 605              		.loc 1 230 36 is_stmt 0 view .LVU153
 606 002c 80F83030 		strb	r3, [r0, #48]
 231:Core/Src/main.c ****   if (HAL_ADC_Init(&hadc1) != HAL_OK)
 607              		.loc 1 231 3 is_stmt 1 view .LVU154
 231:Core/Src/main.c ****   if (HAL_ADC_Init(&hadc1) != HAL_OK)
 608              		.loc 1 231 27 is_stmt 0 view .LVU155
 609 0030 4261     		str	r2, [r0, #20]
 232:Core/Src/main.c ****   {
 610              		.loc 1 232 3 is_stmt 1 view .LVU156
 232:Core/Src/main.c ****   {
 611              		.loc 1 232 7 is_stmt 0 view .LVU157
 612 0032 FFF7FEFF 		bl	HAL_ADC_Init
 613              	.LVL22:
 232:Core/Src/main.c ****   {
 614              		.loc 1 232 6 view .LVU158
 615 0036 68B9     		cbnz	r0, .L36
 238:Core/Src/main.c ****   sConfig.Rank = 1;
 616              		.loc 1 238 3 is_stmt 1 view .LVU159
 238:Core/Src/main.c ****   sConfig.Rank = 1;
 617              		.loc 1 238 19 is_stmt 0 view .LVU160
 618 0038 0623     		movs	r3, #6
 619 003a 0093     		str	r3, [sp]
 239:Core/Src/main.c ****   sConfig.SamplingTime = ADC_SAMPLETIME_480CYCLES;
 620              		.loc 1 239 3 is_stmt 1 view .LVU161
 239:Core/Src/main.c ****   sConfig.SamplingTime = ADC_SAMPLETIME_480CYCLES;
 621              		.loc 1 239 16 is_stmt 0 view .LVU162
 622 003c 0123     		movs	r3, #1
 623 003e 0193     		str	r3, [sp, #4]
 240:Core/Src/main.c ****   if (HAL_ADC_ConfigChannel(&hadc1, &sConfig) != HAL_OK)
ARM GAS  C:\Users\sangt\AppData\Local\Temp\ccci1Ijc.s 			page 26


 624              		.loc 1 240 3 is_stmt 1 view .LVU163
 240:Core/Src/main.c ****   if (HAL_ADC_ConfigChannel(&hadc1, &sConfig) != HAL_OK)
 625              		.loc 1 240 24 is_stmt 0 view .LVU164
 626 0040 0723     		movs	r3, #7
 627 0042 0293     		str	r3, [sp, #8]
 241:Core/Src/main.c ****   {
 628              		.loc 1 241 3 is_stmt 1 view .LVU165
 241:Core/Src/main.c ****   {
 629              		.loc 1 241 7 is_stmt 0 view .LVU166
 630 0044 6946     		mov	r1, sp
 631 0046 0548     		ldr	r0, .L38
 632 0048 FFF7FEFF 		bl	HAL_ADC_ConfigChannel
 633              	.LVL23:
 241:Core/Src/main.c ****   {
 634              		.loc 1 241 6 view .LVU167
 635 004c 20B9     		cbnz	r0, .L37
 249:Core/Src/main.c **** 
 636              		.loc 1 249 1 view .LVU168
 637 004e 05B0     		add	sp, sp, #20
 638              	.LCFI15:
 639              		.cfi_remember_state
 640              		.cfi_def_cfa_offset 4
 641              		@ sp needed
 642 0050 5DF804FB 		ldr	pc, [sp], #4
 643              	.L36:
 644              	.LCFI16:
 645              		.cfi_restore_state
 234:Core/Src/main.c ****   }
 646              		.loc 1 234 5 is_stmt 1 view .LVU169
 647 0054 FFF7FEFF 		bl	Error_Handler
 648              	.LVL24:
 649              	.L37:
 243:Core/Src/main.c ****   }
 650              		.loc 1 243 5 view .LVU170
 651 0058 FFF7FEFF 		bl	Error_Handler
 652              	.LVL25:
 653              	.L39:
 654              		.align	2
 655              	.L38:
 656 005c 00000000 		.word	.LANCHOR3
 657 0060 00200140 		.word	1073815552
 658 0064 0100000F 		.word	251658241
 659              		.cfi_endproc
 660              	.LFE242:
 662              		.section	.text.MX_I2C1_Init,"ax",%progbits
 663              		.align	1
 664              		.syntax unified
 665              		.thumb
 666              		.thumb_func
 668              	MX_I2C1_Init:
 669              	.LFB243:
 257:Core/Src/main.c **** 
 670              		.loc 1 257 1 view -0
 671              		.cfi_startproc
 672              		@ args = 0, pretend = 0, frame = 0
 673              		@ frame_needed = 0, uses_anonymous_args = 0
 674 0000 08B5     		push	{r3, lr}
ARM GAS  C:\Users\sangt\AppData\Local\Temp\ccci1Ijc.s 			page 27


 675              	.LCFI17:
 676              		.cfi_def_cfa_offset 8
 677              		.cfi_offset 3, -8
 678              		.cfi_offset 14, -4
 266:Core/Src/main.c ****   hi2c1.Init.ClockSpeed = 100000;
 679              		.loc 1 266 3 view .LVU172
 266:Core/Src/main.c ****   hi2c1.Init.ClockSpeed = 100000;
 680              		.loc 1 266 18 is_stmt 0 view .LVU173
 681 0002 0A48     		ldr	r0, .L44
 682 0004 0A4B     		ldr	r3, .L44+4
 683 0006 0360     		str	r3, [r0]
 267:Core/Src/main.c ****   hi2c1.Init.DutyCycle = I2C_DUTYCYCLE_2;
 684              		.loc 1 267 3 is_stmt 1 view .LVU174
 267:Core/Src/main.c ****   hi2c1.Init.DutyCycle = I2C_DUTYCYCLE_2;
 685              		.loc 1 267 25 is_stmt 0 view .LVU175
 686 0008 0A4B     		ldr	r3, .L44+8
 687 000a 4360     		str	r3, [r0, #4]
 268:Core/Src/main.c ****   hi2c1.Init.OwnAddress1 = 0;
 688              		.loc 1 268 3 is_stmt 1 view .LVU176
 268:Core/Src/main.c ****   hi2c1.Init.OwnAddress1 = 0;
 689              		.loc 1 268 24 is_stmt 0 view .LVU177
 690 000c 0023     		movs	r3, #0
 691 000e 8360     		str	r3, [r0, #8]
 269:Core/Src/main.c ****   hi2c1.Init.AddressingMode = I2C_ADDRESSINGMODE_7BIT;
 692              		.loc 1 269 3 is_stmt 1 view .LVU178
 269:Core/Src/main.c ****   hi2c1.Init.AddressingMode = I2C_ADDRESSINGMODE_7BIT;
 693              		.loc 1 269 26 is_stmt 0 view .LVU179
 694 0010 C360     		str	r3, [r0, #12]
 270:Core/Src/main.c ****   hi2c1.Init.DualAddressMode = I2C_DUALADDRESS_DISABLE;
 695              		.loc 1 270 3 is_stmt 1 view .LVU180
 270:Core/Src/main.c ****   hi2c1.Init.DualAddressMode = I2C_DUALADDRESS_DISABLE;
 696              		.loc 1 270 29 is_stmt 0 view .LVU181
 697 0012 4FF48042 		mov	r2, #16384
 698 0016 0261     		str	r2, [r0, #16]
 271:Core/Src/main.c ****   hi2c1.Init.OwnAddress2 = 0;
 699              		.loc 1 271 3 is_stmt 1 view .LVU182
 271:Core/Src/main.c ****   hi2c1.Init.OwnAddress2 = 0;
 700              		.loc 1 271 30 is_stmt 0 view .LVU183
 701 0018 4361     		str	r3, [r0, #20]
 272:Core/Src/main.c ****   hi2c1.Init.GeneralCallMode = I2C_GENERALCALL_DISABLE;
 702              		.loc 1 272 3 is_stmt 1 view .LVU184
 272:Core/Src/main.c ****   hi2c1.Init.GeneralCallMode = I2C_GENERALCALL_DISABLE;
 703              		.loc 1 272 26 is_stmt 0 view .LVU185
 704 001a 8361     		str	r3, [r0, #24]
 273:Core/Src/main.c ****   hi2c1.Init.NoStretchMode = I2C_NOSTRETCH_DISABLE;
 705              		.loc 1 273 3 is_stmt 1 view .LVU186
 273:Core/Src/main.c ****   hi2c1.Init.NoStretchMode = I2C_NOSTRETCH_DISABLE;
 706              		.loc 1 273 30 is_stmt 0 view .LVU187
 707 001c C361     		str	r3, [r0, #28]
 274:Core/Src/main.c ****   if (HAL_I2C_Init(&hi2c1) != HAL_OK)
 708              		.loc 1 274 3 is_stmt 1 view .LVU188
 274:Core/Src/main.c ****   if (HAL_I2C_Init(&hi2c1) != HAL_OK)
 709              		.loc 1 274 28 is_stmt 0 view .LVU189
 710 001e 0362     		str	r3, [r0, #32]
 275:Core/Src/main.c ****   {
 711              		.loc 1 275 3 is_stmt 1 view .LVU190
 275:Core/Src/main.c ****   {
ARM GAS  C:\Users\sangt\AppData\Local\Temp\ccci1Ijc.s 			page 28


 712              		.loc 1 275 7 is_stmt 0 view .LVU191
 713 0020 FFF7FEFF 		bl	HAL_I2C_Init
 714              	.LVL26:
 275:Core/Src/main.c ****   {
 715              		.loc 1 275 6 view .LVU192
 716 0024 00B9     		cbnz	r0, .L43
 283:Core/Src/main.c **** 
 717              		.loc 1 283 1 view .LVU193
 718 0026 08BD     		pop	{r3, pc}
 719              	.L43:
 277:Core/Src/main.c ****   }
 720              		.loc 1 277 5 is_stmt 1 view .LVU194
 721 0028 FFF7FEFF 		bl	Error_Handler
 722              	.LVL27:
 723              	.L45:
 724              		.align	2
 725              	.L44:
 726 002c 00000000 		.word	.LANCHOR0
 727 0030 00540040 		.word	1073763328
 728 0034 A0860100 		.word	100000
 729              		.cfi_endproc
 730              	.LFE243:
 732              		.section	.text.MX_I2C2_Init,"ax",%progbits
 733              		.align	1
 734              		.syntax unified
 735              		.thumb
 736              		.thumb_func
 738              	MX_I2C2_Init:
 739              	.LFB244:
 291:Core/Src/main.c **** 
 740              		.loc 1 291 1 view -0
 741              		.cfi_startproc
 742              		@ args = 0, pretend = 0, frame = 0
 743              		@ frame_needed = 0, uses_anonymous_args = 0
 744 0000 08B5     		push	{r3, lr}
 745              	.LCFI18:
 746              		.cfi_def_cfa_offset 8
 747              		.cfi_offset 3, -8
 748              		.cfi_offset 14, -4
 300:Core/Src/main.c ****   hi2c2.Init.ClockSpeed = 100000;
 749              		.loc 1 300 3 view .LVU196
 300:Core/Src/main.c ****   hi2c2.Init.ClockSpeed = 100000;
 750              		.loc 1 300 18 is_stmt 0 view .LVU197
 751 0002 0A48     		ldr	r0, .L50
 752 0004 0A4B     		ldr	r3, .L50+4
 753 0006 0360     		str	r3, [r0]
 301:Core/Src/main.c ****   hi2c2.Init.DutyCycle = I2C_DUTYCYCLE_2;
 754              		.loc 1 301 3 is_stmt 1 view .LVU198
 301:Core/Src/main.c ****   hi2c2.Init.DutyCycle = I2C_DUTYCYCLE_2;
 755              		.loc 1 301 25 is_stmt 0 view .LVU199
 756 0008 0A4B     		ldr	r3, .L50+8
 757 000a 4360     		str	r3, [r0, #4]
 302:Core/Src/main.c ****   hi2c2.Init.OwnAddress1 = 0;
 758              		.loc 1 302 3 is_stmt 1 view .LVU200
 302:Core/Src/main.c ****   hi2c2.Init.OwnAddress1 = 0;
 759              		.loc 1 302 24 is_stmt 0 view .LVU201
 760 000c 0023     		movs	r3, #0
ARM GAS  C:\Users\sangt\AppData\Local\Temp\ccci1Ijc.s 			page 29


 761 000e 8360     		str	r3, [r0, #8]
 303:Core/Src/main.c ****   hi2c2.Init.AddressingMode = I2C_ADDRESSINGMODE_7BIT;
 762              		.loc 1 303 3 is_stmt 1 view .LVU202
 303:Core/Src/main.c ****   hi2c2.Init.AddressingMode = I2C_ADDRESSINGMODE_7BIT;
 763              		.loc 1 303 26 is_stmt 0 view .LVU203
 764 0010 C360     		str	r3, [r0, #12]
 304:Core/Src/main.c ****   hi2c2.Init.DualAddressMode = I2C_DUALADDRESS_DISABLE;
 765              		.loc 1 304 3 is_stmt 1 view .LVU204
 304:Core/Src/main.c ****   hi2c2.Init.DualAddressMode = I2C_DUALADDRESS_DISABLE;
 766              		.loc 1 304 29 is_stmt 0 view .LVU205
 767 0012 4FF48042 		mov	r2, #16384
 768 0016 0261     		str	r2, [r0, #16]
 305:Core/Src/main.c ****   hi2c2.Init.OwnAddress2 = 0;
 769              		.loc 1 305 3 is_stmt 1 view .LVU206
 305:Core/Src/main.c ****   hi2c2.Init.OwnAddress2 = 0;
 770              		.loc 1 305 30 is_stmt 0 view .LVU207
 771 0018 4361     		str	r3, [r0, #20]
 306:Core/Src/main.c ****   hi2c2.Init.GeneralCallMode = I2C_GENERALCALL_DISABLE;
 772              		.loc 1 306 3 is_stmt 1 view .LVU208
 306:Core/Src/main.c ****   hi2c2.Init.GeneralCallMode = I2C_GENERALCALL_DISABLE;
 773              		.loc 1 306 26 is_stmt 0 view .LVU209
 774 001a 8361     		str	r3, [r0, #24]
 307:Core/Src/main.c ****   hi2c2.Init.NoStretchMode = I2C_NOSTRETCH_DISABLE;
 775              		.loc 1 307 3 is_stmt 1 view .LVU210
 307:Core/Src/main.c ****   hi2c2.Init.NoStretchMode = I2C_NOSTRETCH_DISABLE;
 776              		.loc 1 307 30 is_stmt 0 view .LVU211
 777 001c C361     		str	r3, [r0, #28]
 308:Core/Src/main.c ****   if (HAL_I2C_Init(&hi2c2) != HAL_OK)
 778              		.loc 1 308 3 is_stmt 1 view .LVU212
 308:Core/Src/main.c ****   if (HAL_I2C_Init(&hi2c2) != HAL_OK)
 779              		.loc 1 308 28 is_stmt 0 view .LVU213
 780 001e 0362     		str	r3, [r0, #32]
 309:Core/Src/main.c ****   {
 781              		.loc 1 309 3 is_stmt 1 view .LVU214
 309:Core/Src/main.c ****   {
 782              		.loc 1 309 7 is_stmt 0 view .LVU215
 783 0020 FFF7FEFF 		bl	HAL_I2C_Init
 784              	.LVL28:
 309:Core/Src/main.c ****   {
 785              		.loc 1 309 6 view .LVU216
 786 0024 00B9     		cbnz	r0, .L49
 317:Core/Src/main.c **** 
 787              		.loc 1 317 1 view .LVU217
 788 0026 08BD     		pop	{r3, pc}
 789              	.L49:
 311:Core/Src/main.c ****   }
 790              		.loc 1 311 5 is_stmt 1 view .LVU218
 791 0028 FFF7FEFF 		bl	Error_Handler
 792              	.LVL29:
 793              	.L51:
 794              		.align	2
 795              	.L50:
 796 002c 00000000 		.word	.LANCHOR4
 797 0030 00580040 		.word	1073764352
 798 0034 A0860100 		.word	100000
 799              		.cfi_endproc
 800              	.LFE244:
ARM GAS  C:\Users\sangt\AppData\Local\Temp\ccci1Ijc.s 			page 30


 802              		.section	.text.MX_TIM5_Init,"ax",%progbits
 803              		.align	1
 804              		.syntax unified
 805              		.thumb
 806              		.thumb_func
 808              	MX_TIM5_Init:
 809              	.LFB245:
 325:Core/Src/main.c **** 
 810              		.loc 1 325 1 view -0
 811              		.cfi_startproc
 812              		@ args = 0, pretend = 0, frame = 56
 813              		@ frame_needed = 0, uses_anonymous_args = 0
 814 0000 00B5     		push	{lr}
 815              	.LCFI19:
 816              		.cfi_def_cfa_offset 4
 817              		.cfi_offset 14, -4
 818 0002 8FB0     		sub	sp, sp, #60
 819              	.LCFI20:
 820              		.cfi_def_cfa_offset 64
 331:Core/Src/main.c ****   TIM_MasterConfigTypeDef sMasterConfig = {0};
 821              		.loc 1 331 3 view .LVU220
 331:Core/Src/main.c ****   TIM_MasterConfigTypeDef sMasterConfig = {0};
 822              		.loc 1 331 26 is_stmt 0 view .LVU221
 823 0004 0023     		movs	r3, #0
 824 0006 0A93     		str	r3, [sp, #40]
 825 0008 0B93     		str	r3, [sp, #44]
 826 000a 0C93     		str	r3, [sp, #48]
 827 000c 0D93     		str	r3, [sp, #52]
 332:Core/Src/main.c ****   TIM_OC_InitTypeDef sConfigOC = {0};
 828              		.loc 1 332 3 is_stmt 1 view .LVU222
 332:Core/Src/main.c ****   TIM_OC_InitTypeDef sConfigOC = {0};
 829              		.loc 1 332 27 is_stmt 0 view .LVU223
 830 000e 0893     		str	r3, [sp, #32]
 831 0010 0993     		str	r3, [sp, #36]
 333:Core/Src/main.c **** 
 832              		.loc 1 333 3 is_stmt 1 view .LVU224
 333:Core/Src/main.c **** 
 833              		.loc 1 333 22 is_stmt 0 view .LVU225
 834 0012 0193     		str	r3, [sp, #4]
 835 0014 0293     		str	r3, [sp, #8]
 836 0016 0393     		str	r3, [sp, #12]
 837 0018 0493     		str	r3, [sp, #16]
 838 001a 0593     		str	r3, [sp, #20]
 839 001c 0693     		str	r3, [sp, #24]
 840 001e 0793     		str	r3, [sp, #28]
 338:Core/Src/main.c ****   htim5.Init.Prescaler = 640;
 841              		.loc 1 338 3 is_stmt 1 view .LVU226
 338:Core/Src/main.c ****   htim5.Init.Prescaler = 640;
 842              		.loc 1 338 18 is_stmt 0 view .LVU227
 843 0020 2C48     		ldr	r0, .L70
 844 0022 2D4A     		ldr	r2, .L70+4
 845 0024 0260     		str	r2, [r0]
 339:Core/Src/main.c ****   htim5.Init.CounterMode = TIM_COUNTERMODE_UP;
 846              		.loc 1 339 3 is_stmt 1 view .LVU228
 339:Core/Src/main.c ****   htim5.Init.CounterMode = TIM_COUNTERMODE_UP;
 847              		.loc 1 339 24 is_stmt 0 view .LVU229
 848 0026 4FF42072 		mov	r2, #640
ARM GAS  C:\Users\sangt\AppData\Local\Temp\ccci1Ijc.s 			page 31


 849 002a 4260     		str	r2, [r0, #4]
 340:Core/Src/main.c ****   htim5.Init.Period = 2000;
 850              		.loc 1 340 3 is_stmt 1 view .LVU230
 340:Core/Src/main.c ****   htim5.Init.Period = 2000;
 851              		.loc 1 340 26 is_stmt 0 view .LVU231
 852 002c 8360     		str	r3, [r0, #8]
 341:Core/Src/main.c ****   htim5.Init.ClockDivision = TIM_CLOCKDIVISION_DIV1;
 853              		.loc 1 341 3 is_stmt 1 view .LVU232
 341:Core/Src/main.c ****   htim5.Init.ClockDivision = TIM_CLOCKDIVISION_DIV1;
 854              		.loc 1 341 21 is_stmt 0 view .LVU233
 855 002e 4FF4FA62 		mov	r2, #2000
 856 0032 C260     		str	r2, [r0, #12]
 342:Core/Src/main.c ****   htim5.Init.AutoReloadPreload = TIM_AUTORELOAD_PRELOAD_DISABLE;
 857              		.loc 1 342 3 is_stmt 1 view .LVU234
 342:Core/Src/main.c ****   htim5.Init.AutoReloadPreload = TIM_AUTORELOAD_PRELOAD_DISABLE;
 858              		.loc 1 342 28 is_stmt 0 view .LVU235
 859 0034 0361     		str	r3, [r0, #16]
 343:Core/Src/main.c ****   if (HAL_TIM_Base_Init(&htim5) != HAL_OK)
 860              		.loc 1 343 3 is_stmt 1 view .LVU236
 343:Core/Src/main.c ****   if (HAL_TIM_Base_Init(&htim5) != HAL_OK)
 861              		.loc 1 343 32 is_stmt 0 view .LVU237
 862 0036 8361     		str	r3, [r0, #24]
 344:Core/Src/main.c ****   {
 863              		.loc 1 344 3 is_stmt 1 view .LVU238
 344:Core/Src/main.c ****   {
 864              		.loc 1 344 7 is_stmt 0 view .LVU239
 865 0038 FFF7FEFF 		bl	HAL_TIM_Base_Init
 866              	.LVL30:
 344:Core/Src/main.c ****   {
 867              		.loc 1 344 6 view .LVU240
 868 003c 0028     		cmp	r0, #0
 869 003e 39D1     		bne	.L62
 348:Core/Src/main.c ****   if (HAL_TIM_ConfigClockSource(&htim5, &sClockSourceConfig) != HAL_OK)
 870              		.loc 1 348 3 is_stmt 1 view .LVU241
 348:Core/Src/main.c ****   if (HAL_TIM_ConfigClockSource(&htim5, &sClockSourceConfig) != HAL_OK)
 871              		.loc 1 348 34 is_stmt 0 view .LVU242
 872 0040 4FF48053 		mov	r3, #4096
 873 0044 0A93     		str	r3, [sp, #40]
 349:Core/Src/main.c ****   {
 874              		.loc 1 349 3 is_stmt 1 view .LVU243
 349:Core/Src/main.c ****   {
 875              		.loc 1 349 7 is_stmt 0 view .LVU244
 876 0046 0AA9     		add	r1, sp, #40
 877 0048 2248     		ldr	r0, .L70
 878 004a FFF7FEFF 		bl	HAL_TIM_ConfigClockSource
 879              	.LVL31:
 349:Core/Src/main.c ****   {
 880              		.loc 1 349 6 view .LVU245
 881 004e 0028     		cmp	r0, #0
 882 0050 32D1     		bne	.L63
 353:Core/Src/main.c ****   {
 883              		.loc 1 353 3 is_stmt 1 view .LVU246
 353:Core/Src/main.c ****   {
 884              		.loc 1 353 7 is_stmt 0 view .LVU247
 885 0052 2048     		ldr	r0, .L70
 886 0054 FFF7FEFF 		bl	HAL_TIM_PWM_Init
 887              	.LVL32:
ARM GAS  C:\Users\sangt\AppData\Local\Temp\ccci1Ijc.s 			page 32


 353:Core/Src/main.c ****   {
 888              		.loc 1 353 6 view .LVU248
 889 0058 0028     		cmp	r0, #0
 890 005a 2FD1     		bne	.L64
 357:Core/Src/main.c ****   sMasterConfig.MasterSlaveMode = TIM_MASTERSLAVEMODE_DISABLE;
 891              		.loc 1 357 3 is_stmt 1 view .LVU249
 357:Core/Src/main.c ****   sMasterConfig.MasterSlaveMode = TIM_MASTERSLAVEMODE_DISABLE;
 892              		.loc 1 357 37 is_stmt 0 view .LVU250
 893 005c 0023     		movs	r3, #0
 894 005e 0893     		str	r3, [sp, #32]
 358:Core/Src/main.c ****   if (HAL_TIMEx_MasterConfigSynchronization(&htim5, &sMasterConfig) != HAL_OK)
 895              		.loc 1 358 3 is_stmt 1 view .LVU251
 358:Core/Src/main.c ****   if (HAL_TIMEx_MasterConfigSynchronization(&htim5, &sMasterConfig) != HAL_OK)
 896              		.loc 1 358 33 is_stmt 0 view .LVU252
 897 0060 0993     		str	r3, [sp, #36]
 359:Core/Src/main.c ****   {
 898              		.loc 1 359 3 is_stmt 1 view .LVU253
 359:Core/Src/main.c ****   {
 899              		.loc 1 359 7 is_stmt 0 view .LVU254
 900 0062 08A9     		add	r1, sp, #32
 901 0064 1B48     		ldr	r0, .L70
 902 0066 FFF7FEFF 		bl	HAL_TIMEx_MasterConfigSynchronization
 903              	.LVL33:
 359:Core/Src/main.c ****   {
 904              		.loc 1 359 6 view .LVU255
 905 006a 48BB     		cbnz	r0, .L65
 363:Core/Src/main.c ****   sConfigOC.Pulse = 0;
 906              		.loc 1 363 3 is_stmt 1 view .LVU256
 363:Core/Src/main.c ****   sConfigOC.Pulse = 0;
 907              		.loc 1 363 20 is_stmt 0 view .LVU257
 908 006c 6023     		movs	r3, #96
 909 006e 0193     		str	r3, [sp, #4]
 364:Core/Src/main.c ****   sConfigOC.OCPolarity = TIM_OCPOLARITY_HIGH;
 910              		.loc 1 364 3 is_stmt 1 view .LVU258
 364:Core/Src/main.c ****   sConfigOC.OCPolarity = TIM_OCPOLARITY_HIGH;
 911              		.loc 1 364 19 is_stmt 0 view .LVU259
 912 0070 0022     		movs	r2, #0
 913 0072 0292     		str	r2, [sp, #8]
 365:Core/Src/main.c ****   sConfigOC.OCFastMode = TIM_OCFAST_DISABLE;
 914              		.loc 1 365 3 is_stmt 1 view .LVU260
 365:Core/Src/main.c ****   sConfigOC.OCFastMode = TIM_OCFAST_DISABLE;
 915              		.loc 1 365 24 is_stmt 0 view .LVU261
 916 0074 0392     		str	r2, [sp, #12]
 366:Core/Src/main.c ****   if (HAL_TIM_PWM_ConfigChannel(&htim5, &sConfigOC, TIM_CHANNEL_1) != HAL_OK)
 917              		.loc 1 366 3 is_stmt 1 view .LVU262
 366:Core/Src/main.c ****   if (HAL_TIM_PWM_ConfigChannel(&htim5, &sConfigOC, TIM_CHANNEL_1) != HAL_OK)
 918              		.loc 1 366 24 is_stmt 0 view .LVU263
 919 0076 0592     		str	r2, [sp, #20]
 367:Core/Src/main.c ****   {
 920              		.loc 1 367 3 is_stmt 1 view .LVU264
 367:Core/Src/main.c ****   {
 921              		.loc 1 367 7 is_stmt 0 view .LVU265
 922 0078 01A9     		add	r1, sp, #4
 923 007a 1648     		ldr	r0, .L70
 924 007c FFF7FEFF 		bl	HAL_TIM_PWM_ConfigChannel
 925              	.LVL34:
 367:Core/Src/main.c ****   {
ARM GAS  C:\Users\sangt\AppData\Local\Temp\ccci1Ijc.s 			page 33


 926              		.loc 1 367 6 view .LVU266
 927 0080 00BB     		cbnz	r0, .L66
 371:Core/Src/main.c ****   {
 928              		.loc 1 371 3 is_stmt 1 view .LVU267
 371:Core/Src/main.c ****   {
 929              		.loc 1 371 7 is_stmt 0 view .LVU268
 930 0082 0422     		movs	r2, #4
 931 0084 0DEB0201 		add	r1, sp, r2
 932 0088 1248     		ldr	r0, .L70
 933 008a FFF7FEFF 		bl	HAL_TIM_PWM_ConfigChannel
 934              	.LVL35:
 371:Core/Src/main.c ****   {
 935              		.loc 1 371 6 view .LVU269
 936 008e D8B9     		cbnz	r0, .L67
 375:Core/Src/main.c ****   {
 937              		.loc 1 375 3 is_stmt 1 view .LVU270
 375:Core/Src/main.c ****   {
 938              		.loc 1 375 7 is_stmt 0 view .LVU271
 939 0090 0822     		movs	r2, #8
 940 0092 01A9     		add	r1, sp, #4
 941 0094 0F48     		ldr	r0, .L70
 942 0096 FFF7FEFF 		bl	HAL_TIM_PWM_ConfigChannel
 943              	.LVL36:
 375:Core/Src/main.c ****   {
 944              		.loc 1 375 6 view .LVU272
 945 009a B8B9     		cbnz	r0, .L68
 379:Core/Src/main.c ****   {
 946              		.loc 1 379 3 is_stmt 1 view .LVU273
 379:Core/Src/main.c ****   {
 947              		.loc 1 379 7 is_stmt 0 view .LVU274
 948 009c 0C22     		movs	r2, #12
 949 009e 01A9     		add	r1, sp, #4
 950 00a0 0C48     		ldr	r0, .L70
 951 00a2 FFF7FEFF 		bl	HAL_TIM_PWM_ConfigChannel
 952              	.LVL37:
 379:Core/Src/main.c ****   {
 953              		.loc 1 379 6 view .LVU275
 954 00a6 98B9     		cbnz	r0, .L69
 386:Core/Src/main.c **** 
 955              		.loc 1 386 3 is_stmt 1 view .LVU276
 956 00a8 0A48     		ldr	r0, .L70
 957 00aa FFF7FEFF 		bl	HAL_TIM_MspPostInit
 958              	.LVL38:
 388:Core/Src/main.c **** 
 959              		.loc 1 388 1 is_stmt 0 view .LVU277
 960 00ae 0FB0     		add	sp, sp, #60
 961              	.LCFI21:
 962              		.cfi_remember_state
 963              		.cfi_def_cfa_offset 4
 964              		@ sp needed
 965 00b0 5DF804FB 		ldr	pc, [sp], #4
 966              	.L62:
 967              	.LCFI22:
 968              		.cfi_restore_state
 346:Core/Src/main.c ****   }
 969              		.loc 1 346 5 is_stmt 1 view .LVU278
 970 00b4 FFF7FEFF 		bl	Error_Handler
ARM GAS  C:\Users\sangt\AppData\Local\Temp\ccci1Ijc.s 			page 34


 971              	.LVL39:
 972              	.L63:
 351:Core/Src/main.c ****   }
 973              		.loc 1 351 5 view .LVU279
 974 00b8 FFF7FEFF 		bl	Error_Handler
 975              	.LVL40:
 976              	.L64:
 355:Core/Src/main.c ****   }
 977              		.loc 1 355 5 view .LVU280
 978 00bc FFF7FEFF 		bl	Error_Handler
 979              	.LVL41:
 980              	.L65:
 361:Core/Src/main.c ****   }
 981              		.loc 1 361 5 view .LVU281
 982 00c0 FFF7FEFF 		bl	Error_Handler
 983              	.LVL42:
 984              	.L66:
 369:Core/Src/main.c ****   }
 985              		.loc 1 369 5 view .LVU282
 986 00c4 FFF7FEFF 		bl	Error_Handler
 987              	.LVL43:
 988              	.L67:
 373:Core/Src/main.c ****   }
 989              		.loc 1 373 5 view .LVU283
 990 00c8 FFF7FEFF 		bl	Error_Handler
 991              	.LVL44:
 992              	.L68:
 377:Core/Src/main.c ****   }
 993              		.loc 1 377 5 view .LVU284
 994 00cc FFF7FEFF 		bl	Error_Handler
 995              	.LVL45:
 996              	.L69:
 381:Core/Src/main.c ****   }
 997              		.loc 1 381 5 view .LVU285
 998 00d0 FFF7FEFF 		bl	Error_Handler
 999              	.LVL46:
 1000              	.L71:
 1001              		.align	2
 1002              	.L70:
 1003 00d4 00000000 		.word	.LANCHOR5
 1004 00d8 000C0040 		.word	1073744896
 1005              		.cfi_endproc
 1006              	.LFE245:
 1008              		.section	.text.MX_UART5_Init,"ax",%progbits
 1009              		.align	1
 1010              		.syntax unified
 1011              		.thumb
 1012              		.thumb_func
 1014              	MX_UART5_Init:
 1015              	.LFB246:
 396:Core/Src/main.c **** 
 1016              		.loc 1 396 1 view -0
 1017              		.cfi_startproc
 1018              		@ args = 0, pretend = 0, frame = 0
 1019              		@ frame_needed = 0, uses_anonymous_args = 0
 1020 0000 08B5     		push	{r3, lr}
 1021              	.LCFI23:
ARM GAS  C:\Users\sangt\AppData\Local\Temp\ccci1Ijc.s 			page 35


 1022              		.cfi_def_cfa_offset 8
 1023              		.cfi_offset 3, -8
 1024              		.cfi_offset 14, -4
 405:Core/Src/main.c ****   huart5.Init.BaudRate = 115200;
 1025              		.loc 1 405 3 view .LVU287
 405:Core/Src/main.c ****   huart5.Init.BaudRate = 115200;
 1026              		.loc 1 405 19 is_stmt 0 view .LVU288
 1027 0002 0A48     		ldr	r0, .L76
 1028 0004 0A4B     		ldr	r3, .L76+4
 1029 0006 0360     		str	r3, [r0]
 406:Core/Src/main.c ****   huart5.Init.WordLength = UART_WORDLENGTH_8B;
 1030              		.loc 1 406 3 is_stmt 1 view .LVU289
 406:Core/Src/main.c ****   huart5.Init.WordLength = UART_WORDLENGTH_8B;
 1031              		.loc 1 406 24 is_stmt 0 view .LVU290
 1032 0008 4FF4E133 		mov	r3, #115200
 1033 000c 4360     		str	r3, [r0, #4]
 407:Core/Src/main.c ****   huart5.Init.StopBits = UART_STOPBITS_1;
 1034              		.loc 1 407 3 is_stmt 1 view .LVU291
 407:Core/Src/main.c ****   huart5.Init.StopBits = UART_STOPBITS_1;
 1035              		.loc 1 407 26 is_stmt 0 view .LVU292
 1036 000e 0023     		movs	r3, #0
 1037 0010 8360     		str	r3, [r0, #8]
 408:Core/Src/main.c ****   huart5.Init.Parity = UART_PARITY_NONE;
 1038              		.loc 1 408 3 is_stmt 1 view .LVU293
 408:Core/Src/main.c ****   huart5.Init.Parity = UART_PARITY_NONE;
 1039              		.loc 1 408 24 is_stmt 0 view .LVU294
 1040 0012 C360     		str	r3, [r0, #12]
 409:Core/Src/main.c ****   huart5.Init.Mode = UART_MODE_TX_RX;
 1041              		.loc 1 409 3 is_stmt 1 view .LVU295
 409:Core/Src/main.c ****   huart5.Init.Mode = UART_MODE_TX_RX;
 1042              		.loc 1 409 22 is_stmt 0 view .LVU296
 1043 0014 0361     		str	r3, [r0, #16]
 410:Core/Src/main.c ****   huart5.Init.HwFlowCtl = UART_HWCONTROL_NONE;
 1044              		.loc 1 410 3 is_stmt 1 view .LVU297
 410:Core/Src/main.c ****   huart5.Init.HwFlowCtl = UART_HWCONTROL_NONE;
 1045              		.loc 1 410 20 is_stmt 0 view .LVU298
 1046 0016 0C22     		movs	r2, #12
 1047 0018 4261     		str	r2, [r0, #20]
 411:Core/Src/main.c ****   huart5.Init.OverSampling = UART_OVERSAMPLING_16;
 1048              		.loc 1 411 3 is_stmt 1 view .LVU299
 411:Core/Src/main.c ****   huart5.Init.OverSampling = UART_OVERSAMPLING_16;
 1049              		.loc 1 411 25 is_stmt 0 view .LVU300
 1050 001a 8361     		str	r3, [r0, #24]
 412:Core/Src/main.c ****   if (HAL_UART_Init(&huart5) != HAL_OK)
 1051              		.loc 1 412 3 is_stmt 1 view .LVU301
 412:Core/Src/main.c ****   if (HAL_UART_Init(&huart5) != HAL_OK)
 1052              		.loc 1 412 28 is_stmt 0 view .LVU302
 1053 001c C361     		str	r3, [r0, #28]
 413:Core/Src/main.c ****   {
 1054              		.loc 1 413 3 is_stmt 1 view .LVU303
 413:Core/Src/main.c ****   {
 1055              		.loc 1 413 7 is_stmt 0 view .LVU304
 1056 001e FFF7FEFF 		bl	HAL_UART_Init
 1057              	.LVL47:
 413:Core/Src/main.c ****   {
 1058              		.loc 1 413 6 view .LVU305
 1059 0022 00B9     		cbnz	r0, .L75
ARM GAS  C:\Users\sangt\AppData\Local\Temp\ccci1Ijc.s 			page 36


 421:Core/Src/main.c **** 
 1060              		.loc 1 421 1 view .LVU306
 1061 0024 08BD     		pop	{r3, pc}
 1062              	.L75:
 415:Core/Src/main.c ****   }
 1063              		.loc 1 415 5 is_stmt 1 view .LVU307
 1064 0026 FFF7FEFF 		bl	Error_Handler
 1065              	.LVL48:
 1066              	.L77:
 1067 002a 00BF     		.align	2
 1068              	.L76:
 1069 002c 00000000 		.word	.LANCHOR6
 1070 0030 00500040 		.word	1073762304
 1071              		.cfi_endproc
 1072              	.LFE246:
 1074              		.section	.text.MX_USART3_UART_Init,"ax",%progbits
 1075              		.align	1
 1076              		.syntax unified
 1077              		.thumb
 1078              		.thumb_func
 1080              	MX_USART3_UART_Init:
 1081              	.LFB248:
 462:Core/Src/main.c **** 
 1082              		.loc 1 462 1 view -0
 1083              		.cfi_startproc
 1084              		@ args = 0, pretend = 0, frame = 0
 1085              		@ frame_needed = 0, uses_anonymous_args = 0
 1086 0000 08B5     		push	{r3, lr}
 1087              	.LCFI24:
 1088              		.cfi_def_cfa_offset 8
 1089              		.cfi_offset 3, -8
 1090              		.cfi_offset 14, -4
 471:Core/Src/main.c ****   huart3.Init.BaudRate = 115200;
 1091              		.loc 1 471 3 view .LVU309
 471:Core/Src/main.c ****   huart3.Init.BaudRate = 115200;
 1092              		.loc 1 471 19 is_stmt 0 view .LVU310
 1093 0002 0A48     		ldr	r0, .L82
 1094 0004 0A4B     		ldr	r3, .L82+4
 1095 0006 0360     		str	r3, [r0]
 472:Core/Src/main.c ****   huart3.Init.WordLength = UART_WORDLENGTH_8B;
 1096              		.loc 1 472 3 is_stmt 1 view .LVU311
 472:Core/Src/main.c ****   huart3.Init.WordLength = UART_WORDLENGTH_8B;
 1097              		.loc 1 472 24 is_stmt 0 view .LVU312
 1098 0008 4FF4E133 		mov	r3, #115200
 1099 000c 4360     		str	r3, [r0, #4]
 473:Core/Src/main.c ****   huart3.Init.StopBits = UART_STOPBITS_1;
 1100              		.loc 1 473 3 is_stmt 1 view .LVU313
 473:Core/Src/main.c ****   huart3.Init.StopBits = UART_STOPBITS_1;
 1101              		.loc 1 473 26 is_stmt 0 view .LVU314
 1102 000e 0023     		movs	r3, #0
 1103 0010 8360     		str	r3, [r0, #8]
 474:Core/Src/main.c ****   huart3.Init.Parity = UART_PARITY_NONE;
 1104              		.loc 1 474 3 is_stmt 1 view .LVU315
 474:Core/Src/main.c ****   huart3.Init.Parity = UART_PARITY_NONE;
 1105              		.loc 1 474 24 is_stmt 0 view .LVU316
 1106 0012 C360     		str	r3, [r0, #12]
 475:Core/Src/main.c ****   huart3.Init.Mode = UART_MODE_TX_RX;
ARM GAS  C:\Users\sangt\AppData\Local\Temp\ccci1Ijc.s 			page 37


 1107              		.loc 1 475 3 is_stmt 1 view .LVU317
 475:Core/Src/main.c ****   huart3.Init.Mode = UART_MODE_TX_RX;
 1108              		.loc 1 475 22 is_stmt 0 view .LVU318
 1109 0014 0361     		str	r3, [r0, #16]
 476:Core/Src/main.c ****   huart3.Init.HwFlowCtl = UART_HWCONTROL_NONE;
 1110              		.loc 1 476 3 is_stmt 1 view .LVU319
 476:Core/Src/main.c ****   huart3.Init.HwFlowCtl = UART_HWCONTROL_NONE;
 1111              		.loc 1 476 20 is_stmt 0 view .LVU320
 1112 0016 0C22     		movs	r2, #12
 1113 0018 4261     		str	r2, [r0, #20]
 477:Core/Src/main.c ****   huart3.Init.OverSampling = UART_OVERSAMPLING_16;
 1114              		.loc 1 477 3 is_stmt 1 view .LVU321
 477:Core/Src/main.c ****   huart3.Init.OverSampling = UART_OVERSAMPLING_16;
 1115              		.loc 1 477 25 is_stmt 0 view .LVU322
 1116 001a 8361     		str	r3, [r0, #24]
 478:Core/Src/main.c ****   if (HAL_UART_Init(&huart3) != HAL_OK)
 1117              		.loc 1 478 3 is_stmt 1 view .LVU323
 478:Core/Src/main.c ****   if (HAL_UART_Init(&huart3) != HAL_OK)
 1118              		.loc 1 478 28 is_stmt 0 view .LVU324
 1119 001c C361     		str	r3, [r0, #28]
 479:Core/Src/main.c ****   {
 1120              		.loc 1 479 3 is_stmt 1 view .LVU325
 479:Core/Src/main.c ****   {
 1121              		.loc 1 479 7 is_stmt 0 view .LVU326
 1122 001e FFF7FEFF 		bl	HAL_UART_Init
 1123              	.LVL49:
 479:Core/Src/main.c ****   {
 1124              		.loc 1 479 6 view .LVU327
 1125 0022 00B9     		cbnz	r0, .L81
 487:Core/Src/main.c **** 
 1126              		.loc 1 487 1 view .LVU328
 1127 0024 08BD     		pop	{r3, pc}
 1128              	.L81:
 481:Core/Src/main.c ****   }
 1129              		.loc 1 481 5 is_stmt 1 view .LVU329
 1130 0026 FFF7FEFF 		bl	Error_Handler
 1131              	.LVL50:
 1132              	.L83:
 1133 002a 00BF     		.align	2
 1134              	.L82:
 1135 002c 00000000 		.word	.LANCHOR7
 1136 0030 00480040 		.word	1073760256
 1137              		.cfi_endproc
 1138              	.LFE248:
 1140              		.section	.text.SystemClock_Config,"ax",%progbits
 1141              		.align	1
 1142              		.global	SystemClock_Config
 1143              		.syntax unified
 1144              		.thumb
 1145              		.thumb_func
 1147              	SystemClock_Config:
 1148              	.LFB241:
 163:Core/Src/main.c ****   RCC_OscInitTypeDef RCC_OscInitStruct = {0};
 1149              		.loc 1 163 1 view -0
 1150              		.cfi_startproc
 1151              		@ args = 0, pretend = 0, frame = 80
 1152              		@ frame_needed = 0, uses_anonymous_args = 0
ARM GAS  C:\Users\sangt\AppData\Local\Temp\ccci1Ijc.s 			page 38


 1153 0000 00B5     		push	{lr}
 1154              	.LCFI25:
 1155              		.cfi_def_cfa_offset 4
 1156              		.cfi_offset 14, -4
 1157 0002 95B0     		sub	sp, sp, #84
 1158              	.LCFI26:
 1159              		.cfi_def_cfa_offset 88
 164:Core/Src/main.c ****   RCC_ClkInitTypeDef RCC_ClkInitStruct = {0};
 1160              		.loc 1 164 3 view .LVU331
 164:Core/Src/main.c ****   RCC_ClkInitTypeDef RCC_ClkInitStruct = {0};
 1161              		.loc 1 164 22 is_stmt 0 view .LVU332
 1162 0004 3022     		movs	r2, #48
 1163 0006 0021     		movs	r1, #0
 1164 0008 08A8     		add	r0, sp, #32
 1165 000a FFF7FEFF 		bl	memset
 1166              	.LVL51:
 165:Core/Src/main.c **** 
 1167              		.loc 1 165 3 is_stmt 1 view .LVU333
 165:Core/Src/main.c **** 
 1168              		.loc 1 165 22 is_stmt 0 view .LVU334
 1169 000e 0023     		movs	r3, #0
 1170 0010 0393     		str	r3, [sp, #12]
 1171 0012 0493     		str	r3, [sp, #16]
 1172 0014 0593     		str	r3, [sp, #20]
 1173 0016 0693     		str	r3, [sp, #24]
 1174 0018 0793     		str	r3, [sp, #28]
 169:Core/Src/main.c ****   __HAL_PWR_VOLTAGESCALING_CONFIG(PWR_REGULATOR_VOLTAGE_SCALE1);
 1175              		.loc 1 169 3 is_stmt 1 view .LVU335
 1176              	.LBB12:
 169:Core/Src/main.c ****   __HAL_PWR_VOLTAGESCALING_CONFIG(PWR_REGULATOR_VOLTAGE_SCALE1);
 1177              		.loc 1 169 3 view .LVU336
 1178 001a 0193     		str	r3, [sp, #4]
 169:Core/Src/main.c ****   __HAL_PWR_VOLTAGESCALING_CONFIG(PWR_REGULATOR_VOLTAGE_SCALE1);
 1179              		.loc 1 169 3 view .LVU337
 1180 001c 204A     		ldr	r2, .L90
 1181 001e 116C     		ldr	r1, [r2, #64]
 1182 0020 41F08051 		orr	r1, r1, #268435456
 1183 0024 1164     		str	r1, [r2, #64]
 169:Core/Src/main.c ****   __HAL_PWR_VOLTAGESCALING_CONFIG(PWR_REGULATOR_VOLTAGE_SCALE1);
 1184              		.loc 1 169 3 view .LVU338
 1185 0026 126C     		ldr	r2, [r2, #64]
 1186 0028 02F08052 		and	r2, r2, #268435456
 1187 002c 0192     		str	r2, [sp, #4]
 169:Core/Src/main.c ****   __HAL_PWR_VOLTAGESCALING_CONFIG(PWR_REGULATOR_VOLTAGE_SCALE1);
 1188              		.loc 1 169 3 view .LVU339
 1189 002e 019A     		ldr	r2, [sp, #4]
 1190              	.LBE12:
 169:Core/Src/main.c ****   __HAL_PWR_VOLTAGESCALING_CONFIG(PWR_REGULATOR_VOLTAGE_SCALE1);
 1191              		.loc 1 169 3 view .LVU340
 170:Core/Src/main.c ****   /** Initializes the RCC Oscillators according to the specified parameters
 1192              		.loc 1 170 3 view .LVU341
 1193              	.LBB13:
 170:Core/Src/main.c ****   /** Initializes the RCC Oscillators according to the specified parameters
 1194              		.loc 1 170 3 view .LVU342
 1195 0030 0293     		str	r3, [sp, #8]
 170:Core/Src/main.c ****   /** Initializes the RCC Oscillators according to the specified parameters
 1196              		.loc 1 170 3 view .LVU343
ARM GAS  C:\Users\sangt\AppData\Local\Temp\ccci1Ijc.s 			page 39


 1197 0032 1C4B     		ldr	r3, .L90+4
 1198 0034 1A68     		ldr	r2, [r3]
 1199 0036 42F48042 		orr	r2, r2, #16384
 1200 003a 1A60     		str	r2, [r3]
 170:Core/Src/main.c ****   /** Initializes the RCC Oscillators according to the specified parameters
 1201              		.loc 1 170 3 view .LVU344
 1202 003c 1B68     		ldr	r3, [r3]
 1203 003e 03F48043 		and	r3, r3, #16384
 1204 0042 0293     		str	r3, [sp, #8]
 170:Core/Src/main.c ****   /** Initializes the RCC Oscillators according to the specified parameters
 1205              		.loc 1 170 3 view .LVU345
 1206 0044 029B     		ldr	r3, [sp, #8]
 1207              	.LBE13:
 170:Core/Src/main.c ****   /** Initializes the RCC Oscillators according to the specified parameters
 1208              		.loc 1 170 3 view .LVU346
 174:Core/Src/main.c ****   RCC_OscInitStruct.HSEState = RCC_HSE_ON;
 1209              		.loc 1 174 3 view .LVU347
 174:Core/Src/main.c ****   RCC_OscInitStruct.HSEState = RCC_HSE_ON;
 1210              		.loc 1 174 36 is_stmt 0 view .LVU348
 1211 0046 0123     		movs	r3, #1
 1212 0048 0893     		str	r3, [sp, #32]
 175:Core/Src/main.c ****   RCC_OscInitStruct.PLL.PLLState = RCC_PLL_ON;
 1213              		.loc 1 175 3 is_stmt 1 view .LVU349
 175:Core/Src/main.c ****   RCC_OscInitStruct.PLL.PLLState = RCC_PLL_ON;
 1214              		.loc 1 175 30 is_stmt 0 view .LVU350
 1215 004a 4FF48033 		mov	r3, #65536
 1216 004e 0993     		str	r3, [sp, #36]
 176:Core/Src/main.c ****   RCC_OscInitStruct.PLL.PLLSource = RCC_PLLSOURCE_HSE;
 1217              		.loc 1 176 3 is_stmt 1 view .LVU351
 176:Core/Src/main.c ****   RCC_OscInitStruct.PLL.PLLSource = RCC_PLLSOURCE_HSE;
 1218              		.loc 1 176 34 is_stmt 0 view .LVU352
 1219 0050 0222     		movs	r2, #2
 1220 0052 0E92     		str	r2, [sp, #56]
 177:Core/Src/main.c ****   RCC_OscInitStruct.PLL.PLLM = 4;
 1221              		.loc 1 177 3 is_stmt 1 view .LVU353
 177:Core/Src/main.c ****   RCC_OscInitStruct.PLL.PLLM = 4;
 1222              		.loc 1 177 35 is_stmt 0 view .LVU354
 1223 0054 4FF48003 		mov	r3, #4194304
 1224 0058 0F93     		str	r3, [sp, #60]
 178:Core/Src/main.c ****   RCC_OscInitStruct.PLL.PLLN = 128;
 1225              		.loc 1 178 3 is_stmt 1 view .LVU355
 178:Core/Src/main.c ****   RCC_OscInitStruct.PLL.PLLN = 128;
 1226              		.loc 1 178 30 is_stmt 0 view .LVU356
 1227 005a 0423     		movs	r3, #4
 1228 005c 1093     		str	r3, [sp, #64]
 179:Core/Src/main.c ****   RCC_OscInitStruct.PLL.PLLP = RCC_PLLP_DIV2;
 1229              		.loc 1 179 3 is_stmt 1 view .LVU357
 179:Core/Src/main.c ****   RCC_OscInitStruct.PLL.PLLP = RCC_PLLP_DIV2;
 1230              		.loc 1 179 30 is_stmt 0 view .LVU358
 1231 005e 8021     		movs	r1, #128
 1232 0060 1191     		str	r1, [sp, #68]
 180:Core/Src/main.c ****   RCC_OscInitStruct.PLL.PLLQ = 4;
 1233              		.loc 1 180 3 is_stmt 1 view .LVU359
 180:Core/Src/main.c ****   RCC_OscInitStruct.PLL.PLLQ = 4;
 1234              		.loc 1 180 30 is_stmt 0 view .LVU360
 1235 0062 1292     		str	r2, [sp, #72]
 181:Core/Src/main.c ****   if (HAL_RCC_OscConfig(&RCC_OscInitStruct) != HAL_OK)
ARM GAS  C:\Users\sangt\AppData\Local\Temp\ccci1Ijc.s 			page 40


 1236              		.loc 1 181 3 is_stmt 1 view .LVU361
 181:Core/Src/main.c ****   if (HAL_RCC_OscConfig(&RCC_OscInitStruct) != HAL_OK)
 1237              		.loc 1 181 30 is_stmt 0 view .LVU362
 1238 0064 1393     		str	r3, [sp, #76]
 182:Core/Src/main.c ****   {
 1239              		.loc 1 182 3 is_stmt 1 view .LVU363
 182:Core/Src/main.c ****   {
 1240              		.loc 1 182 7 is_stmt 0 view .LVU364
 1241 0066 08A8     		add	r0, sp, #32
 1242 0068 FFF7FEFF 		bl	HAL_RCC_OscConfig
 1243              	.LVL52:
 182:Core/Src/main.c ****   {
 1244              		.loc 1 182 6 view .LVU365
 1245 006c 98B9     		cbnz	r0, .L88
 188:Core/Src/main.c ****                               |RCC_CLOCKTYPE_PCLK1|RCC_CLOCKTYPE_PCLK2;
 1246              		.loc 1 188 3 is_stmt 1 view .LVU366
 188:Core/Src/main.c ****                               |RCC_CLOCKTYPE_PCLK1|RCC_CLOCKTYPE_PCLK2;
 1247              		.loc 1 188 31 is_stmt 0 view .LVU367
 1248 006e 0F23     		movs	r3, #15
 1249 0070 0393     		str	r3, [sp, #12]
 190:Core/Src/main.c ****   RCC_ClkInitStruct.AHBCLKDivider = RCC_SYSCLK_DIV1;
 1250              		.loc 1 190 3 is_stmt 1 view .LVU368
 190:Core/Src/main.c ****   RCC_ClkInitStruct.AHBCLKDivider = RCC_SYSCLK_DIV1;
 1251              		.loc 1 190 34 is_stmt 0 view .LVU369
 1252 0072 0223     		movs	r3, #2
 1253 0074 0493     		str	r3, [sp, #16]
 191:Core/Src/main.c ****   RCC_ClkInitStruct.APB1CLKDivider = RCC_HCLK_DIV4;
 1254              		.loc 1 191 3 is_stmt 1 view .LVU370
 191:Core/Src/main.c ****   RCC_ClkInitStruct.APB1CLKDivider = RCC_HCLK_DIV4;
 1255              		.loc 1 191 35 is_stmt 0 view .LVU371
 1256 0076 0023     		movs	r3, #0
 1257 0078 0593     		str	r3, [sp, #20]
 192:Core/Src/main.c ****   RCC_ClkInitStruct.APB2CLKDivider = RCC_HCLK_DIV2;
 1258              		.loc 1 192 3 is_stmt 1 view .LVU372
 192:Core/Src/main.c ****   RCC_ClkInitStruct.APB2CLKDivider = RCC_HCLK_DIV2;
 1259              		.loc 1 192 36 is_stmt 0 view .LVU373
 1260 007a 4FF4A053 		mov	r3, #5120
 1261 007e 0693     		str	r3, [sp, #24]
 193:Core/Src/main.c **** 
 1262              		.loc 1 193 3 is_stmt 1 view .LVU374
 193:Core/Src/main.c **** 
 1263              		.loc 1 193 36 is_stmt 0 view .LVU375
 1264 0080 4FF48053 		mov	r3, #4096
 1265 0084 0793     		str	r3, [sp, #28]
 195:Core/Src/main.c ****   {
 1266              		.loc 1 195 3 is_stmt 1 view .LVU376
 195:Core/Src/main.c ****   {
 1267              		.loc 1 195 7 is_stmt 0 view .LVU377
 1268 0086 0421     		movs	r1, #4
 1269 0088 03A8     		add	r0, sp, #12
 1270 008a FFF7FEFF 		bl	HAL_RCC_ClockConfig
 1271              	.LVL53:
 195:Core/Src/main.c ****   {
 1272              		.loc 1 195 6 view .LVU378
 1273 008e 20B9     		cbnz	r0, .L89
 199:Core/Src/main.c **** 
 1274              		.loc 1 199 1 view .LVU379
ARM GAS  C:\Users\sangt\AppData\Local\Temp\ccci1Ijc.s 			page 41


 1275 0090 15B0     		add	sp, sp, #84
 1276              	.LCFI27:
 1277              		.cfi_remember_state
 1278              		.cfi_def_cfa_offset 4
 1279              		@ sp needed
 1280 0092 5DF804FB 		ldr	pc, [sp], #4
 1281              	.L88:
 1282              	.LCFI28:
 1283              		.cfi_restore_state
 184:Core/Src/main.c ****   }
 1284              		.loc 1 184 5 is_stmt 1 view .LVU380
 1285 0096 FFF7FEFF 		bl	Error_Handler
 1286              	.LVL54:
 1287              	.L89:
 197:Core/Src/main.c ****   }
 1288              		.loc 1 197 5 view .LVU381
 1289 009a FFF7FEFF 		bl	Error_Handler
 1290              	.LVL55:
 1291              	.L91:
 1292 009e 00BF     		.align	2
 1293              	.L90:
 1294 00a0 00380240 		.word	1073887232
 1295 00a4 00700040 		.word	1073770496
 1296              		.cfi_endproc
 1297              	.LFE241:
 1299              		.section	.rodata.main.str1.4,"aMS",%progbits,1
 1300              		.align	2
 1301              	.LC0:
 1302 0000 44656661 		.ascii	"Default\000"
 1302      756C7400 
 1303              		.section	.text.main,"ax",%progbits
 1304              		.align	1
 1305              		.global	main
 1306              		.syntax unified
 1307              		.thumb
 1308              		.thumb_func
 1310              	main:
 1311              	.LFB240:
 108:Core/Src/main.c ****   /* USER CODE BEGIN 1 */
 1312              		.loc 1 108 1 view -0
 1313              		.cfi_startproc
 1314              		@ Volatile: function does not return.
 1315              		@ args = 0, pretend = 0, frame = 0
 1316              		@ frame_needed = 0, uses_anonymous_args = 0
 1317 0000 00B5     		push	{lr}
 1318              	.LCFI29:
 1319              		.cfi_def_cfa_offset 4
 1320              		.cfi_offset 14, -4
 1321 0002 83B0     		sub	sp, sp, #12
 1322              	.LCFI30:
 1323              		.cfi_def_cfa_offset 16
 116:Core/Src/main.c **** 
 1324              		.loc 1 116 3 view .LVU383
 1325 0004 FFF7FEFF 		bl	HAL_Init
 1326              	.LVL56:
 123:Core/Src/main.c **** 
 1327              		.loc 1 123 3 view .LVU384
ARM GAS  C:\Users\sangt\AppData\Local\Temp\ccci1Ijc.s 			page 42


 1328 0008 FFF7FEFF 		bl	SystemClock_Config
 1329              	.LVL57:
 130:Core/Src/main.c ****   MX_USART1_UART_Init();
 1330              		.loc 1 130 3 view .LVU385
 1331 000c FFF7FEFF 		bl	MX_GPIO_Init
 1332              	.LVL58:
 131:Core/Src/main.c ****   MX_DMA_Init();
 1333              		.loc 1 131 3 view .LVU386
 1334 0010 FFF7FEFF 		bl	MX_USART1_UART_Init
 1335              	.LVL59:
 132:Core/Src/main.c ****   MX_ADC1_Init();
 1336              		.loc 1 132 3 view .LVU387
 1337 0014 FFF7FEFF 		bl	MX_DMA_Init
 1338              	.LVL60:
 133:Core/Src/main.c ****   MX_I2C1_Init();
 1339              		.loc 1 133 3 view .LVU388
 1340 0018 FFF7FEFF 		bl	MX_ADC1_Init
 1341              	.LVL61:
 134:Core/Src/main.c ****   MX_I2C2_Init();
 1342              		.loc 1 134 3 view .LVU389
 1343 001c FFF7FEFF 		bl	MX_I2C1_Init
 1344              	.LVL62:
 135:Core/Src/main.c ****   MX_TIM5_Init();
 1345              		.loc 1 135 3 view .LVU390
 1346 0020 FFF7FEFF 		bl	MX_I2C2_Init
 1347              	.LVL63:
 136:Core/Src/main.c ****   MX_UART5_Init();
 1348              		.loc 1 136 3 view .LVU391
 1349 0024 FFF7FEFF 		bl	MX_TIM5_Init
 1350              	.LVL64:
 137:Core/Src/main.c ****   MX_USART3_UART_Init();
 1351              		.loc 1 137 3 view .LVU392
 1352 0028 FFF7FEFF 		bl	MX_UART5_Init
 1353              	.LVL65:
 138:Core/Src/main.c ****   /* USER CODE BEGIN 2 */
 1354              		.loc 1 138 3 view .LVU393
 1355 002c FFF7FEFF 		bl	MX_USART3_UART_Init
 1356              	.LVL66:
 140:Core/Src/main.c **** 
 1357              		.loc 1 140 3 view .LVU394
 1358 0030 064B     		ldr	r3, .L95
 1359 0032 0193     		str	r3, [sp, #4]
 1360 0034 0123     		movs	r3, #1
 1361 0036 0093     		str	r3, [sp]
 1362 0038 0023     		movs	r3, #0
 1363 003a 4FF48072 		mov	r2, #256
 1364 003e 0449     		ldr	r1, .L95+4
 1365 0040 0448     		ldr	r0, .L95+8
 1366 0042 FFF7FEFF 		bl	xTaskCreate
 1367              	.LVL67:
 143:Core/Src/main.c ****   /* USER CODE END 2 */
 1368              		.loc 1 143 3 view .LVU395
 1369 0046 FFF7FEFF 		bl	vTaskStartScheduler
 1370              	.LVL68:
 1371              	.L93:
 149:Core/Src/main.c ****   {
 1372              		.loc 1 149 3 discriminator 1 view .LVU396
ARM GAS  C:\Users\sangt\AppData\Local\Temp\ccci1Ijc.s 			page 43


 154:Core/Src/main.c ****   /* USER CODE END 3 */
 1373              		.loc 1 154 3 discriminator 1 view .LVU397
 149:Core/Src/main.c ****   {
 1374              		.loc 1 149 9 discriminator 1 view .LVU398
 1375 004a FEE7     		b	.L93
 1376              	.L96:
 1377              		.align	2
 1378              	.L95:
 1379 004c 00000000 		.word	.LANCHOR8
 1380 0050 00000000 		.word	.LC0
 1381 0054 00000000 		.word	Default_task
 1382              		.cfi_endproc
 1383              	.LFE240:
 1385              		.global	SensorData
 1386              		.global	DefaultTask
 1387              		.global	count
 1388              		.global	huart3
 1389              		.global	huart1
 1390              		.global	huart5
 1391              		.global	htim5
 1392              		.global	hi2c2
 1393              		.global	hi2c1
 1394              		.global	hdma_adc1
 1395              		.global	hadc1
 1396              		.section	.bss.DefaultTask,"aw",%nobits
 1397              		.align	2
 1398              		.set	.LANCHOR8,. + 0
 1401              	DefaultTask:
 1402 0000 00000000 		.space	4
 1403              		.section	.bss.SensorData,"aw",%nobits
 1404              		.align	2
 1405              		.set	.LANCHOR1,. + 0
 1408              	SensorData:
 1409 0000 00000000 		.space	32
 1409      00000000 
 1409      00000000 
 1409      00000000 
 1409      00000000 
 1410              		.section	.bss.count,"aw",%nobits
 1413              	count:
 1414 0000 00       		.space	1
 1415              		.section	.bss.hadc1,"aw",%nobits
 1416              		.align	2
 1417              		.set	.LANCHOR3,. + 0
 1420              	hadc1:
 1421 0000 00000000 		.space	72
 1421      00000000 
 1421      00000000 
 1421      00000000 
 1421      00000000 
 1422              		.section	.bss.hdma_adc1,"aw",%nobits
 1423              		.align	2
 1426              	hdma_adc1:
 1427 0000 00000000 		.space	96
 1427      00000000 
 1427      00000000 
 1427      00000000 
ARM GAS  C:\Users\sangt\AppData\Local\Temp\ccci1Ijc.s 			page 44


 1427      00000000 
 1428              		.section	.bss.hi2c1,"aw",%nobits
 1429              		.align	2
 1430              		.set	.LANCHOR0,. + 0
 1433              	hi2c1:
 1434 0000 00000000 		.space	84
 1434      00000000 
 1434      00000000 
 1434      00000000 
 1434      00000000 
 1435              		.section	.bss.hi2c2,"aw",%nobits
 1436              		.align	2
 1437              		.set	.LANCHOR4,. + 0
 1440              	hi2c2:
 1441 0000 00000000 		.space	84
 1441      00000000 
 1441      00000000 
 1441      00000000 
 1441      00000000 
 1442              		.section	.bss.htim5,"aw",%nobits
 1443              		.align	2
 1444              		.set	.LANCHOR5,. + 0
 1447              	htim5:
 1448 0000 00000000 		.space	72
 1448      00000000 
 1448      00000000 
 1448      00000000 
 1448      00000000 
 1449              		.section	.bss.huart1,"aw",%nobits
 1450              		.align	2
 1451              		.set	.LANCHOR2,. + 0
 1454              	huart1:
 1455 0000 00000000 		.space	68
 1455      00000000 
 1455      00000000 
 1455      00000000 
 1455      00000000 
 1456              		.section	.bss.huart3,"aw",%nobits
 1457              		.align	2
 1458              		.set	.LANCHOR7,. + 0
 1461              	huart3:
 1462 0000 00000000 		.space	68
 1462      00000000 
 1462      00000000 
 1462      00000000 
 1462      00000000 
 1463              		.section	.bss.huart5,"aw",%nobits
 1464              		.align	2
 1465              		.set	.LANCHOR6,. + 0
 1468              	huart5:
 1469 0000 00000000 		.space	68
 1469      00000000 
 1469      00000000 
 1469      00000000 
 1469      00000000 
 1470              		.text
 1471              	.Letext0:
ARM GAS  C:\Users\sangt\AppData\Local\Temp\ccci1Ijc.s 			page 45


 1472              		.file 3 "c:\\program files (x86)\\gnu arm embedded toolchain\\10 2021.10\\arm-none-eabi\\include\\
 1473              		.file 4 "c:\\program files (x86)\\gnu arm embedded toolchain\\10 2021.10\\arm-none-eabi\\include\\
 1474              		.file 5 "Drivers/CMSIS/Device/ST/STM32F4xx/Include/stm32f405xx.h"
 1475              		.file 6 "Drivers/CMSIS/Device/ST/STM32F4xx/Include/stm32f4xx.h"
 1476              		.file 7 "Drivers/STM32F4xx_HAL_Driver/Inc/stm32f4xx_hal_def.h"
 1477              		.file 8 "Drivers/STM32F4xx_HAL_Driver/Inc/stm32f4xx_hal_rcc_ex.h"
 1478              		.file 9 "Drivers/STM32F4xx_HAL_Driver/Inc/stm32f4xx_hal_rcc.h"
 1479              		.file 10 "Drivers/STM32F4xx_HAL_Driver/Inc/stm32f4xx_hal_gpio.h"
 1480              		.file 11 "Drivers/STM32F4xx_HAL_Driver/Inc/stm32f4xx_hal_dma.h"
 1481              		.file 12 "Drivers/STM32F4xx_HAL_Driver/Inc/stm32f4xx_hal_adc.h"
 1482              		.file 13 "Drivers/STM32F4xx_HAL_Driver/Inc/stm32f4xx_hal_i2c.h"
 1483              		.file 14 "Drivers/STM32F4xx_HAL_Driver/Inc/stm32f4xx_hal_tim.h"
 1484              		.file 15 "Drivers/STM32F4xx_HAL_Driver/Inc/stm32f4xx_hal_uart.h"
 1485              		.file 16 "Middlewares/Third_Party/FreeRTOS/Source/portable/GCC/ARM_CM4F/portmacro.h"
 1486              		.file 17 "Middlewares/Third_Party/FreeRTOS/Source/include/task.h"
 1487              		.file 18 "Drivers/MPU6050/Inc/ST_MPU6050.h"
 1488              		.file 19 "Drivers/Sensors/sensors.h"
 1489              		.file 20 "Drivers/STM32F4xx_HAL_Driver/Inc/stm32f4xx_hal.h"
 1490              		.file 21 "Drivers/STM32F4xx_HAL_Driver/Inc/stm32f4xx_hal_cortex.h"
 1491              		.file 22 "Drivers/STM32F4xx_HAL_Driver/Inc/stm32f4xx_hal_tim_ex.h"
 1492              		.file 23 "Core/Inc/main.h"
 1493              		.file 24 "<built-in>"
ARM GAS  C:\Users\sangt\AppData\Local\Temp\ccci1Ijc.s 			page 46

